(dp1
(I31
I6
tp2
(F133.01439055555556
F58.891058055555554
tp3
s(I40
I22
tp4
(F69.24004444444445
F33.717730277777783
tp5
s(I21
I28
tp6
(F-5.4762616666666668
F45.687780555555555
tp7
s(I4
I36
tp8
S'space'
p9
s(I43
I3
tp10
g9
s(I7
I25
tp11
(F-56.5920725
F34.386937777777774
tp12
s(I29
I44
tp13
(F18.629976388888888
F-25.268469444444442
tp14
s(I33
I41
tp15
(F28.072862222222223
F-7.4074122222222227
tp16
s(I36
I34
tp17
(F38.646589722222224
F16.106905277777781
tp18
s(I44
I34
tp19
g9
s(I9
I0
tp20
g9
s(I34
I8
tp21
(F118.17244277777779
F54.563550833333331
tp22
s(I15
I30
tp23
(F-24.553302777777777
F36.662192222222224
tp24
s(I37
I13
tp25
(F94.162400555555564
F49.748138611111109
tp26
s(I24
I14
tp27
(F26.352120277777779
F81.36214722222222
tp28
s(I13
I20
tp29
(F-50.05443666666666
F56.582675000000002
tp30
s(I3
I2
tp31
g9
s(I28
I10
tp32
(F108.91369916666667
F75.025105277777783
tp33
s(I31
I15
tp34
(F69.236187777777772
F66.170339166666665
tp35
s(I1
I40
tp36
g9
s(I40
I29
tp37
(F55.763944166666668
F19.815026388888889
tp38
s(I21
I37
tp39
(F-4.0611516666666665
F19.722408888888886
tp40
s(I4
I35
tp41
(F-56.559532222222217
F-9.8242238888888895
tp42
s(I8
I38
tp43
(F-40.202869444444445
F-3.2707969444444442
tp44
s(I7
I22
tp45
(F-63.52993138888889
F39.685213888888889
tp46
s(I29
I37
tp47
(F17.574618611111109
F16.912190555555554
tp48
s(I33
I34
tp49
(F30.146683888888887
F21.687067500000001
tp50
s(I16
I38
tp51
(F-17.273976111111111
F13.373610833333334
tp52
s(I36
I41
tp53
g9
s(I41
I34
tp54
(F55.369890277777777
F-2.2164852777777782
tp55
s(I22
I12
tp56
(F-30.363740555555555
F87.480354722222231
tp57
s(I44
I25
tp58
(F76.310112777777775
F10.423996944444443
tp59
s(I9
I9
tp60
(F-113.02873638888889
F49.310828888888885
tp61
s(I34
I3
tp62
g9
s(I24
I21
tp63
(F8.6149194444444444
F63.572872777777782
tp64
s(I13
I13
tp65
(F-85.204226944444443
F64.931240277777789
tp66
s(I0
I14
tp67
g9
s(I38
I31
tp68
(F47.26421777777778
F20.295958055555559
tp69
s(I3
I11
tp70
g9
s(I28
I1
tp71
(F161.83767972222222
F38.352845000000002
tp72
s(I1
I33
tp73
g9
s(I40
I4
tp74
g9
s(I4
I42
tp75
g9
s(I7
I15
tp76
(F-87.243858611111108
F46.394686944444445
tp77
s(I16
I29
tp78
(F-22.238220555555557
F40.241281944444445
tp79
s(I41
I43
tp80
g9
s(I22
I7
tp81
(F-174.58271888888888
F76.385770833333339
tp82
s(I44
I16
tp83
(F103.01027472222222
F11.265868611111111
tp84
s(I12
I41
tp85
(F-28.072862222222223
F-7.4074122222222227
tp86
s(I34
I26
tp87
(F42.520691388888885
F40.865975277777778
tp88
s(I24
I28
tp89
(F5.4762616666666668
F45.687780555555555
tp90
s(I10
I19
tp91
(F-63.773670833333334
F51.734220555555559
tp92
s(I13
I6
tp93
(F-131.12482583333335
F55.90873222222222
tp94
s(I0
I5
tp95
g9
s(I38
I22
tp96
(F63.52993138888889
F39.685213888888889
tp97
s(I25
I3
tp98
(F167.64771888888887
F58.707951388888894
tp99
s(I28
I24
tp100
(F24.298610277777779
F53.555499166666664
tp101
s(I40
I11
tp102
(F108.46570444444444
F34.915546388888885
tp103
s(I4
I17
tp104
(F-86.846108055555547
F34.566374444444442
tp105
s(I26
I34
tp106
(F10.191294166666667
F28.457976388888888
tp107
s(I7
I4
tp108
g9
s(I16
I20
tp109
(F-37.299956944444446
F61.528345277777774
tp110
s(I19
I1
tp111
(F-167.51127055555557
F43.999971666666667
tp112
s(I41
I44
tp113
g9
s(I22
I30
tp114
(F-1.6749511111111111
F40.51168222222222
tp115
s(I44
I15
tp116
g9
s(I12
I32
tp117
(F-31.746548333333333
F27.51069138888889
tp118
s(I34
I21
tp119
(F54.045246388888884
F50.846068611111114
tp120
s(I17
I43
tp121
(F-14.357772222222222
F-9.6812199999999997
tp122
s(I10
I26
tp123
(F-45.648773333333331
F39.019942499999999
tp124
s(I0
I28
tp125
g9
s(I38
I9
tp126
(F114.65845583333333
F40.710815277777783
tp127
s(I25
I4
tp128
(F165.60663694444443
F63.449433611111111
tp129
s(I28
I23
tp130
(F25.876056388888891
F55.93691611111111
tp131
s(I14
I38
tp132
(F-22.636729444444445
F11.029473611111111
tp133
s(I4
I24
tp134
(F-67.512859444444445
F27.141299166666666
tp135
s(I16
I11
tp136
(F-97.470088888888895
F73.060502499999998
tp137
s(I19
I6
tp138
(F-152.91420388888889
F70.023364999999998
tp139
s(I41
I21
tp140
(F74.702929722222223
F31.52382888888889
tp141
s(I22
I17
tp142
(F-4.6534644444444444
F74.102804999999989
tp143
s(I5
I39
tp144
g9
s(I44
I6
tp145
g9
s(I34
I44
tp146
g9
s(I17
I44
tp147
(F-15.036852777777778
F-19.575759166666668
tp148
s(I37
I33
tp149
(F42.349298888888889
F16.932664444444445
tp150
s(I10
I5
tp151
(F-133.46669500000002
F40.051539166666664
tp152
s(I35
I23
tp153
(F51.949529166666665
F45.13037666666667
tp154
s(I0
I19
tp155
g9
s(I38
I0
tp156
g9
s(I25
I13
tp157
(F52.853888333333337
F81.987189444444439
tp158
s(I14
I41
tp159
(F-22.217173888888887
F-2.4317772222222223
tp160
s(I4
I7
tp161
g9
s(I29
I9
tp162
(F116.90700694444445
F71.09741527777777
tp163
s(I16
I2
tp164
(F-155.77505583333334
F45.246559166666671
tp165
s(I19
I15
tp166
(F-41.428103333333333
F76.402958611111117
tp167
s(I41
I30
tp168
(F57.721887500000001
F13.466105833333332
tp169
s(I22
I40
tp170
(F-1.2889449999999998
F8.9227033333333328
tp171
s(I5
I32
tp172
(F-52.423624166666663
F11.076332777777777
tp173
s(I9
I37
tp174
(F-37.038546666666662
F5.0651158333333335
tp175
s(I34
I39
tp176
(F30.745810000000002
F1.2369275
tp177
s(I17
I37
tp178
(F-14.874030277777779
F17.772357222222222
tp179
s(I37
I42
tp180
g9
s(I42
I39
tp181
g9
s(I23
I11
tp182
(F120.36899583333333
F88.524108611111103
tp183
s(I10
I12
tp184
(F-96.170103055555558
F56.027665277777778
tp185
s(I35
I28
tp186
(F42.369443055555557
F34.474482222222221
tp187
s(I25
I22
tp188
(F13.098326388888889
F60.640300277777776
tp189
s(I1
I13
tp190
g9
s(I39
I24
tp191
(F61.629053611111111
F33.546474444444442
tp192
s(I4
I14
tp193
(F-97.914638611111116
F33.887928333333335
tp194
s(I29
I2
tp195
(F155.77505583333334
F45.246559166666671
tp196
s(I19
I20
tp197
(F-21.517163888888888
F64.905568333333335
tp198
s(I2
I36
tp199
g9
s(I41
I7
tp200
g9
s(I22
I35
tp201
(F-1.4196002777777779
F26.234580277777777
tp202
s(I5
I41
tp203
g9
s(I30
I35
tp204
(F21.141480277777777
F22.451912222222223
tp205
s(I17
I30
tp206
(F-18.189085555555558
F38.455686666666672
tp207
s(I23
I0
tp208
g9
s(I32
I8
tp209
(F119.54809833333333
F60.964905277777781
tp210
s(I13
I42
tp211
(F-25.544901944444447
F-11.723944166666667
tp212
s(I35
I5
tp213
(F133.46669500000002
F40.051539166666664
tp214
s(I25
I31
tp215
(F8.0384250000000002
F37.384881666666665
tp216
s(I11
I28
tp217
(F-39.333736111111115
F36.256548055555555
tp218
s(I1
I6
tp219
g9
s(I39
I17
tp220
(F81.812841666666671
F42.193201388888887
tp221
s(I26
I6
tp222
(F152.91420388888889
F70.023364999999998
tp223
s(I29
I27
tp224
(F24.249499444444446
F45.300583611111108
tp225
s(I19
I29
tp226
(F-12.150319722222223
F42.348490000000005
tp227
s(I41
I8
tp228
g9
s(I5
I18
tp229
(F-80.889199166666671
F38.027458055555556
tp230
s(I30
I42
tp231
(F19.599250555555553
F-6.4236030555555557
tp232
s(I17
I23
tp233
(F-25.876056388888891
F55.93691611111111
tp234
s(I20
I4
tp235
(F-165.60663694444443
F63.449433611111111
tp236
s(I42
I41
tp237
g9
s(I23
I25
tp238
(F2.1460938888888887
F53.599847500000003
tp239
s(I32
I15
tp240
(F72.538357222222217
F63.728898611111113
tp241
s(I13
I35
tp242
(F-26.706027499999998
F20.032716388888886
tp243
s(I35
I10
tp244
(F107.18416972222222
F54.442876111111104
tp245
s(I11
I21
tp246
(F-54.045246388888884
F50.846068611111114
tp247
s(I14
I2
tp248
(F-151.87064000000001
F36.746836666666667
tp249
s(I1
I31
tp250
g9
s(I39
I14
tp251
(F93.475727500000005
F42.719416666666667
tp252
s(I26
I1
tp253
(F167.51127055555557
F43.999971666666667
tp254
s(I29
I20
tp255
(F37.299956944444446
F61.528345277777774
tp256
s(I15
I33
tp257
(F-22.275241944444442
F28.432725277777777
tp258
s(I19
I34
tp259
(F-10.191294166666667
F28.457976388888888
tp260
s(I5
I27
tp261
(F-58.794535277777776
F24.584767222222222
tp262
s(I27
I34
tp263
(F13.083136111111111
F27.928804166666669
tp264
s(I17
I8
tp265
(F-128.70074416666665
F71.746565277777776
tp266
s(I20
I3
tp267
(F-167.64771888888887
F58.707951388888894
tp268
s(I42
I16
tp269
(F93.092182499999993
F29.780984999999998
tp270
s(I23
I22
tp271
(F2.647891111111111
F61.247854444444442
tp272
s(I6
I42
tp273
g9
s(I32
I6
tp274
(F131.12482583333335
F55.90873222222222
tp275
s(I18
I41
tp276
(F-11.551823055555555
F2.887095
tp277
s(I38
I44
tp278
g9
s(I11
I10
tp279
(F-106.68617194444445
F57.752395277777779
tp280
s(I14
I5
tp281
(F-138.19216666666668
F55.479983888888889
tp282
s(I36
I18
tp283
(F70.362477222222211
F50.427616666666665
tp284
s(I1
I16
tp285
(F-103.01027472222222
F11.265868611111111
tp286
s(I39
I7
tp287
g9
s(I26
I8
tp288
(F139.75383444444444
F76.067955833333329
tp289
s(I19
I43
tp290
(F-9.0203638888888893
F-7.1814297222222221
tp291
s(I5
I4
tp292
g9
s(I30
I20
tp293
(F41.870248333333336
F60.038616111111111
tp294
s(I17
I1
tp295
(F-161.83767972222222
F38.352845000000002
tp296
s(I20
I10
tp297
(F-121.88275972222222
F82.481125833333337
tp298
s(I42
I27
tp299
(F65.130813333333322
F17.206198888888888
tp300
s(I10
I32
tp301
(F-37.507976944444444
F24.156054722222219
tp302
s(I32
I29
tp303
(F31.844366944444442
F36.846141666666668
tp304
s(I18
I32
tp305
(F-13.9071175
F33.682394444444441
tp306
s(I38
I39
tp307
g9
s(I43
I40
tp308
g9
s(I8
I22
tp309
(F-60.613951388888893
F42.302029444444443
tp310
s(I11
I3
tp311
g9
s(I14
I12
tp312
(F-90.652062777777786
F67.802385277777773
tp313
s(I36
I25
tp314
(F50.628369166666666
F39.090707222222221
tp315
s(I26
I19
tp316
(F23.779354166666664
F67.307358055555554
tp317
s(I2
I8
tp318
g9
s(I24
I37
tp319
(F4.0611516666666665
F19.722408888888886
tp320
s(I5
I13
tp321
(F-99.69309638888889
F37.903894166666667
tp322
s(I30
I31
tp323
(F23.70785861111111
F34.000150555555557
tp324
s(I20
I17
tp325
(F-22.372528611111111
F73.027303055555549
tp326
s(I42
I2
tp327
g9
s(I23
I36
tp328
(F1.3844980555555555
F23.113446944444444
tp329
s(I6
I36
tp330
(F-47.183088055555551
F-1.3243688888888889
tp331
s(I10
I43
tp332
g9
s(I32
I20
tp333
(F50.05443666666666
F56.582675000000002
tp334
s(I31
I36
tp335
(F23.418813888888891
F18.101838888888889
tp336
s(I35
I33
tp337
(F36.593591111111117
F21.262466388888889
tp338
s(I18
I27
tp339
(F-17.033915833333335
F46.941953055555551
tp340
s(I43
I33
tp341
g9
s(I8
I29
tp342
(F-46.847228888888893
F27.948876111111112
tp343
s(I33
I11
tp344
(F99.934723333333338
F61.720647500000005
tp345
s(I14
I23
tp346
(F-38.084879722222226
F52.232974722222224
tp347
s(I36
I0
tp348
g9
s(I26
I26
tp349
(F14.030957777777779
F50.088115555555561
tp350
s(I12
I25
tp351
(F-41.100634166666666
F44.774450555555553
tp352
s(I2
I3
tp353
g9
s(I24
I44
tp354
(F3.9271408333333331
F-13.24276361111111
tp355
s(I27
I9
tp356
(F123.488005
F76.124805277777767
tp357
s(I30
I6
tp358
(F135.46702111111111
F61.621478611111108
tp359
s(I20
I24
tp360
(F-11.350452222222222
F55.628148333333336
tp361
s(I3
I32
tp362
(F-60.091589444444445
F1.0901594444444445
tp363
s(I42
I13
tp364
(F105.03471972222222
F26.183532222222222
tp365
s(I6
I31
tp366
(F-50.255420555555553
F17.495500833333335
tp367
s(I28
I40
tp368
(F14.241452222222222
F6.4646627777777779
tp369
s(I32
I43
tp370
g9
s(I35
I38
tp371
(F33.815328055555554
F3.3699761111111113
tp372
s(I18
I18
tp373
(F-33.136029722222219
F68.538305277777781
tp374
s(I21
I7
tp375
(F-164.2065536111111
F75.821429444444448
tp376
s(I43
I38
tp377
g9
s(I8
I4
tp378
g9
s(I33
I12
tp379
(F93.494500833333333
F62.125529999999998
tp380
s(I14
I30
tp381
(F-27.666577777777775
F35.550290277777776
tp382
s(I36
I15
tp383
(F82.879816388888884
F52.795407499999996
tp384
s(I12
I16
tp385
(F-70.225491944444443
F60.270240000000001
tp386
s(I15
I5
tp387
(F-140.69217055555555
F58.251716944444446
tp388
s(I2
I26
tp389
(F-70.337373611111104
F14.641256666666667
tp390
s(I27
I14
tp391
(F58.02477833333333
F76.362866666666662
tp392
s(I30
I9
tp393
(F115.0783961111111
F68.405962222222229
tp394
s(I0
I44
tp395
g9
s(I20
I39
tp396
(F-6.531608888888889
F12.368664166666667
tp397
s(I3
I41
tp398
g9
s(I6
I22
tp399
(F-66.391961388888902
F36.839863611111113
tp400
s(I28
I39
tp401
(F14.396531666666666
F10.529618888888889
tp402
s(I32
I34
tp403
(F27.33070972222222
F23.12909777777778
tp404
s(I31
I42
tp405
(F22.468059722222222
F-8.6933511111111113
tp406
s(I18
I13
tp407
(F-69.087678888888888
F77.637064166666676
tp408
s(I40
I34
tp409
(F51.191151388888883
F3.5119822222222221
tp410
s(I21
I0
tp411
g9
s(I43
I31
tp412
(F65.794884166666662
F-2.6459475000000001
tp413
s(I8
I11
tp414
(F-103.79816861111111
F48.425409166666661
tp415
s(I33
I5
tp416
(F134.77710444444446
F48.897068611111109
tp417
s(I39
I43
tp418
g9
s(I12
I15
tp419
(F-75.47197972222223
F61.178584722222219
tp420
s(I15
I2
tp421
(F-153.4751411111111
F41.720220833333336
tp422
s(I37
I17
tp423
(F76.8493136111111
F48.562696388888888
tp424
s(I2
I21
tp425
(F-80.918680277777781
F22.679431111111111
tp426
s(I27
I7
tp427
(F141.14150999999998
F71.411058611111116
tp428
s(I0
I35
tp429
g9
s(I6
I9
tp430
(F-116.1313636111111
F35.231919722222223
tp431
s(I31
I19
tp432
(F49.587803888888892
F60.253608333333332
tp433
s(I18
I4
tp434
(F-155.82933444444444
F60.761048611111114
tp435
s(I40
I41
tp436
g9
s(I21
I9
tp437
(F-151.14812083333334
F82.058854722222222
tp438
s(I43
I20
tp439
(F83.598244999999991
F23.533325833333333
tp440
s(I7
I42
tp441
g9
s(I33
I30
tp442
(F33.75508
F32.873988888888888
tp443
s(I39
I32
tp444
(F49.240592777777778
F14.499289166666665
tp445
s(I9
I21
tp446
(F-60.398106666666664
F46.364449999999998
tp447
s(I12
I6
tp448
(F-129.73229499999999
F52.640248333333332
tp449
s(I15
I11
tp450
(F-97.943537500000005
F70.332404444444435
tp451
s(I37
I26
tp452
(F51.694843055555552
F34.790818611111106
tp453
s(I24
I1
tp454
(F174.43277999999998
F46.591947777777783
tp455
s(I27
I28
tp456
(F16.251505555555557
F44.384842777777777
tp457
s(I3
I23
tp458
(F-72.790160833333331
F24.866754444444446
tp459
s(I25
I38
tp460
(F6.6380916666666661
F16.015058888888888
tp461
s(I6
I0
tp462
g9
s(I31
I24
tp463
(F36.025425277777778
F50.034838888888885
tp464
s(I40
I16
tp465
(F87.870353611111099
F38.893410833333334
tp466
s(I21
I18
tp467
(F-11.929249722222222
F71.184434166666676
tp468
s(I43
I13
tp469
g9
s(I7
I35
tp470
(F-43.977392500000001
F7.2067399999999999
tp471
s(I11
I36
tp472
(F-31.70695222222222
F13.472933888888889
tp473
s(I33
I23
tp474
(F45.32998388888889
F48.989449722222226
tp475
s(I16
I41
tp476
(F-16.793043611111113
F0.77862888888888893
tp477
s(I36
I36
tp478
(F37.420337777777775
F9.1057738888888888
tp479
s(I44
I36
tp480
g9
s(I9
I30
tp481
(F-42.608586666666667
F27.590437222222221
tp482
s(I34
I14
tp483
(F83.431147222222222
F59.036716388888884
tp484
s(I15
I16
tp485
(F-59.220589722222222
F67.170936944444449
tp486
s(I37
I3
tp487
g9
s(I24
I8
tp488
(F159.38634861111112
F79.084612499999992
tp489
s(I27
I21
tp490
(F24.891650277777778
F61.629700833333331
tp491
s(I13
I26
tp492
(F-35.995361388888888
F44.07685138888889
tp493
s(I3
I28
tp494
(F-63.656953055555554
F14.738629444444443
tp495
s(I28
I12
tp496
(F85.125723333333326
F75.798564444444438
tp497
s(I31
I1
tp498
g9
s(I40
I23
tp499
(F66.802350833333335
F32.200226944444445
tp500
s(I21
I27
tp501
(F-5.7508588888888887
F48.293410833333333
tp502
s(I4
I37
tp503
g9
s(I43
I2
tp504
g9
s(I8
I32
tp505
(F-43.277318055555554
F19.937156388888891
tp506
s(I7
I24
tp507
(F-58.713276666666673
F36.281949722222222
tp508
s(I29
I43
tp509
(F17.151877499999998
F-11.593571666666667
tp510
s(I33
I40
tp511
(F27.827031111111111
F-1.3894452777777777
tp512
s(I16
I32
tp513
(F-19.964028888888887
F32.208485000000003
tp514
s(I36
I35
tp515
(F37.964600833333336
F12.752414722222221
tp516
s(I22
I10
tp517
(F-161.26848750000002
F86.032004444444439
tp518
s(I44
I35
tp519
g9
s(I9
I7
tp520
(F-123.24006888888889
F44.161717777777774
tp521
s(I34
I9
tp522
(F112.51784055555555
F56.406705277777775
tp523
s(I15
I25
tp524
(F-30.568468611111111
F49.047313888888887
tp525
s(I37
I12
tp526
(F98.931317777777778
F49.28067027777778
tp527
s(I24
I15
tp528
(F20.163715555555555
F78.848567500000001
tp529
s(I13
I19
tp530
(F-53.554418055555551
F58.340044444444445
tp531
s(I0
I8
tp532
g9
s(I3
I5
tp533
g9
s(I28
I11
tp534
(F97.140853055555567
F75.738058888888887
tp535
s(I31
I14
tp536
(F75.813832222222217
F67.066613888888881
tp537
s(I40
I30
tp538
(F54.484051111111114
F17.146290555555556
tp539
s(I21
I36
tp540
(F-4.1526125
F22.980044722222221
tp541
s(I4
I44
tp542
g9
s(I8
I39
tp543
(F-40.922268333333328
F-10.316731666666666
tp544
s(I7
I17
tp545
(F-79.352898888888888
F45.496189166666667
tp546
s(I29
I36
tp547
(F17.933651944444446
F20.247171666666667
tp548
s(I33
I33
tp549
(F30.898394166666666
F24.664707222222219
tp550
s(I16
I39
tp551
(F-17.035812500000002
F9.573885555555556
tp552
s(I36
I42
tp553
g9
s(I41
I33
tp554
(F55.40694388888889
F2.8002363888888886
tp555
s(I22
I13
tp556
(F-14.257098055555556
F84.82293277777778
tp557
s(I44
I26
tp558
(F74.78256694444444
F7.9959127777777779
tp559
s(I9
I8
tp560
(F-118.15399416666668
F47.115943611111113
tp561
s(I34
I0
tp562
g9
s(I24
I22
tp563
(F7.9149955555555556
F61.044447222222217
tp564
s(I13
I12
tp565
(F-92.112427499999995
F65.006884999999997
tp566
s(I0
I15
tp567
g9
s(I38
I28
tp568
(F51.249661111111109
F27.953795555555555
tp569
s(I3
I10
tp570
g9
s(I28
I2
tp571
(F158.58039777777776
F47.982877500000001
tp572
s(I1
I32
tp573
g9
s(I40
I5
tp574
g9
s(I4
I43
tp575
g9
s(I7
I14
tp576
(F-91.483852499999998
F46.43951222222222
tp577
s(I16
I30
tp578
(F-21.393481944444446
F37.629669722222225
tp579
s(I41
I42
tp580
g9
s(I22
I4
tp581
(F-177.02572222222224
F64.641803333333343
tp582
s(I44
I17
tp583
(F97.705694722222219
F15.363805277777777
tp584
s(I12
I42
tp585
(F-29.090926666666665
F-16.294872222222224
tp586
s(I34
I27
tp587
(F40.846081111111111
F38.60366638888889
tp588
s(I24
I29
tp589
(F5.2343863888888889
F43.050543888888889
tp590
s(I10
I16
tp591
(F-75.889418611111111
F55.051504722222219
tp592
s(I13
I5
tp593
(F-136.23134388888889
F52.38375388888889
tp594
s(I0
I6
tp595
g9
s(I38
I23
tp596
(F61.022223055555557
F38.049862222222224
tp597
s(I25
I2
tp598
(F169.34523916666669
F53.061631666666663
tp599
s(I28
I25
tp600
(F22.929061111111114
F51.138615000000001
tp601
s(I40
I12
tp602
(F103.97904638888889
F36.724947777777778
tp603
s(I4
I18
tp604
(F-83.530984444444442
F34.15814944444444
tp605
s(I26
I35
tp606
(F9.9192916666666662
F25.441596944444445
tp607
s(I7
I7
tp608
(F-125.08165722222222
F32.667299444444446
tp609
s(I16
I21
tp610
(F-34.535132222222224
F59.363890000000005
tp611
s(I19
I0
tp612
g9
s(I41
I19
tp613
(F80.402370277777777
F33.499120555555557
tp614
s(I22
I31
tp615
(F-1.6113116666666667
F37.787151388888887
tp616
s(I44
I8
tp617
g9
s(I12
I33
tp618
(F-30.898394166666666
F24.664707222222219
tp619
s(I34
I18
tp620
(F64.411629166666671
F55.480119444444448
tp621
s(I17
I42
tp622
(F-14.172280277777777
F-3.2504761111111109
tp623
s(I37
I39
tp624
(F40.922268333333328
F-10.316731666666666
tp625
s(I10
I27
tp626
(F-43.928218611111106
F36.794089722222218
tp627
s(I35
I17
tp628
(F71.519804444444446
F54.143205833333333
tp629
s(I0
I29
tp630
g9
s(I38
I14
tp631
(F91.483852499999998
F46.43951222222222
tp632
s(I25
I11
tp633
(F98.438569999999999
F83.550514722222218
tp634
s(I28
I16
tp635
(F48.981666666666669
F71.096076944444434
tp636
s(I14
I39
tp637
(F-22.374653611111111
F7.0567936111111109
tp638
s(I4
I25
tp639
(F-65.463963888888898
F25.332686111111112
tp640
s(I26
I42
tp641
(F8.9513688888888883
F-1.3077902777777779
tp642
s(I29
I15
tp643
(F61.012065277777779
F70.715215555555559
tp644
s(I16
I12
tp645
(F-87.261984166666664
F73.188791944444446
tp646
s(I19
I9
tp647
(F-129.28435444444443
F78.406150833333342
tp648
s(I41
I20
tp649
(F77.460114444444443
F32.614547222222221
tp650
s(I22
I22
tp651
(F-2.647891111111111
F61.247854444444442
tp652
s(I5
I38
tp653
g9
s(I44
I7
tp654
g9
s(I9
I35
tp655
(F-37.964600833333336
F12.752414722222221
tp656
s(I17
I35
tp657
(F-15.549452499999999
F24.23521638888889
tp658
s(I37
I32
tp659
(F43.277318055555554
F19.937156388888891
tp660
s(I23
I13
tp661
(F14.257098055555556
F84.82293277777778
tp662
s(I10
I2
tp663
g9
s(I35
I22
tp664
(F54.495060277777782
F46.964935833333335
tp665
s(I0
I20
tp666
g9
s(I38
I1
tp667
g9
s(I25
I12
tp668
(F72.718522777777778
F83.31768666666666
tp669
s(I1
I11
tp670
g9
s(I4
I0
tp671
g9
s(I29
I8
tp672
(F125.24327638888889
F69.284797222222224
tp673
s(I16
I3
tp674
(F-152.16813277777777
F51.773874444444445
tp675
s(I19
I14
tp676
(F-50.287360833333331
F78.333489722222211
tp677
s(I2
I42
tp678
g9
s(I41
I29
tp679
(F58.93118583333333
F16.275477222222221
tp680
s(I22
I41
tp681
(F-1.2775874999999999
F4.6705244444444451
tp682
s(I9
I36
tp683
(F-37.420337777777775
F9.1057738888888888
tp684
s(I34
I36
tp685
(F31.70695222222222
F13.472933888888889
tp686
s(I17
I36
tp687
(F-15.187443333333334
F21.080893333333332
tp688
s(I37
I41
tp689
g9
s(I42
I36
tp690
g9
s(I23
I10
tp691
(F161.26848750000002
F86.032004444444439
tp692
s(I10
I13
tp693
(F-90.773953055555552
F56.247518333333332
tp694
s(I35
I31
tp695
(F38.536480555555556
F26.90929222222222
tp696
s(I25
I21
tp697
(F14.232878611111111
F63.132956666666665
tp698
s(I1
I12
tp699
g9
s(I39
I27
tp700
(F55.814678611111106
F27.563502777777778
tp701
s(I4
I15
tp702
(F-94.035163055555557
F34.485901944444443
tp703
s(I29
I1
tp704
(F160.10210000000001
F31.91734277777778
tp705
s(I19
I23
tp706
(F-16.867689166666668
F57.581598888888891
tp707
s(I2
I37
tp708
g9
s(I41
I6
tp709
g9
s(I22
I32
tp710
(F-1.5546913888888889
F35.008529444444441
tp711
s(I5
I40
tp712
g9
s(I30
I32
tp713
(F22.951244444444445
F31.260640277777778
tp714
s(I17
I29
tp715
(F-18.923733611111111
F41.084722222222226
tp716
s(I23
I3
tp717
(F177.46208527777776
F59.877439444444448
tp718
s(I32
I9
tp719
(F113.07349666666666
F62.68154472222222
tp720
s(I13
I41
tp721
(F-25.062033888888891
F-4.6211708333333341
tp722
s(I35
I4
tp723
(F139.48822194444443
F31.215794722222221
tp724
s(I25
I30
tp725
(F8.3523830555555545
F40.101224166666668
tp726
s(I11
I31
tp727
(F-35.627601944444443
F28.667076944444446
tp728
s(I1
I5
tp729
g9
s(I39
I16
tp730
(F85.513984444444446
F42.643173611111109
tp731
s(I26
I7
tp732
(F147.33254305555556
F73.250212500000004
tp733
s(I29
I26
tp734
(F25.449836944444446
F47.757394444444444
tp735
s(I19
I28
tp736
(F-12.700124444444445
F44.963384444444451
tp737
s(I41
I15
tp738
(F94.035163055555557
F34.485901944444443
tp739
s(I5
I17
tp740
(F-84.285298611111102
F38.586945555555559
tp741
s(I27
I44
tp742
(F12.063397500000001
F-16.869968055555557
tp743
s(I30
I43
tp744
(F20.112651944444448
F-14.218316666666666
tp745
s(I17
I22
tp746
(F-27.707028888888889
F58.28174111111111
tp747
s(I20
I5
tp748
(F-163.03637805555556
F67.615225555555554
tp749
s(I42
I22
tp750
(F75.140196111111123
F26.278301944444443
tp751
s(I23
I24
tp752
(F2.286731111111111
F56.155389999999997
tp753
s(I32
I0
tp754
g9
s(I13
I34
tp755
(F-27.33070972222222
F23.12909777777778
tp756
s(I35
I13
tp757
(F90.773953055555552
F56.247518333333332
tp758
s(I38
I42
tp759
g9
s(I11
I20
tp760
(F-57.1574375
F52.529933611111112
tp761
s(I14
I3
tp762
(F-147.2638938888889
F45.685876944444438
tp763
s(I36
I20
tp764
(F63.442730555555549
F47.873103888888892
tp765
s(I1
I30
tp766
g9
s(I39
I9
tp767
(F116.1313636111111
F35.231919722222223
tp768
s(I26
I14
tp769
(F50.287360833333331
F78.333489722222211
tp770
s(I29
I19
tp771
(F40.553616666666663
F63.619166666666665
tp772
s(I15
I32
tp773
(F-22.951244444444445
F31.260640277777778
tp774
s(I19
I37
tp775
(F-9.4712638888888883
F19.034506111111114
tp776
s(I5
I26
tp777
(F-60.546747499999995
F26.719289999999997
tp778
s(I27
I37
tp779
(F12.173386944444443
F18.477505277777777
tp780
s(I30
I18
tp781
(F49.225113333333333
F63.885205277777779
tp782
s(I17
I15
tp783
(F-55.722297222222224
F72.793053611111105
tp784
s(I20
I12
tp785
(F-72.718522777777778
F83.31768666666666
tp786
s(I42
I17
tp787
(F89.619629999999987
F29.924241388888891
tp788
s(I23
I17
tp789
(F4.6534644444444444
F74.102804999999989
tp790
s(I6
I43
tp791
g9
s(I10
I38
tp792
(F-33.815328055555554
F3.3699761111111113
tp793
s(I32
I7
tp794
(F125.57417333333333
F58.727650277777776
tp795
s(I18
I38
tp796
(F-11.950247777777777
F15.007238055555556
tp797
s(I8
I16
tp798
(F-80.849625555555548
F49.250653611111112
tp799
s(I11
I13
tp800
(F-89.027565277777782
F59.257223333333336
tp801
s(I14
I10
tp802
(F-106.34238416666666
F66.816100277777778
tp803
s(I36
I19
tp804
(F66.760480000000001
F49.233292500000005
tp805
s(I1
I23
tp806
(F-80.131421666666654
F14.091813333333334
tp807
s(I39
I6
tp808
g9
s(I26
I9
tp809
(F129.28435444444443
F78.406150833333342
tp810
s(I15
I41
tp811
(F-19.472577777777776
F-0.66317583333333341
tp812
s(I19
I42
tp813
(F-8.9513688888888883
F-1.3077902777777779
tp814
s(I2
I14
tp815
(F-105.03704333333333
F19.366749444444444
tp816
s(I5
I3
tp817
g9
s(I30
I21
tp818
(F38.941724999999998
F57.97168527777778
tp819
s(I17
I0
tp820
g9
s(I20
I11
tp821
(F-98.438569999999999
F83.550514722222218
tp822
s(I42
I24
tp823
(F70.615286111111104
F23.256063333333334
tp824
s(I6
I34
tp825
(F-47.720888333333335
F7.6255211111111114
tp826
s(I10
I33
tp827
(F-36.593591111111117
F21.262466388888889
tp828
s(I32
I30
tp829
(F30.733193888888888
F34.289625277777773
tp830
s(I18
I33
tp831
(F-13.471227222222222
F30.848357499999999
tp832
s(I38
I36
tp833
(F43.616721944444443
F2.9945805555555558
tp834
s(I43
I43
tp835
g9
s(I8
I23
tp836
(F-58.082205277777781
F40.603189999999998
tp837
s(I11
I2
tp838
g9
s(I14
I13
tp839
(F-83.004396111111106
F67.628450555555546
tp840
s(I36
I26
tp841
(F48.701746388888893
F37.000289166666668
tp842
s(I26
I16
tp843
(F35.002571666666668
F74.265179722222229
tp844
s(I2
I9
tp845
g9
s(I24
I38
tp846
(F3.9828650000000003
F16.29889166666667
tp847
s(I5
I12
tp848
(F-103.97904638888889
F36.724947777777778
tp849
s(I30
I28
tp850
(F26.554298333333335
F41.786254999999997
tp851
s(I20
I18
tp852
(F-19.513539722222223
F70.570999444444439
tp853
s(I42
I3
tp854
g9
s(I23
I39
tp855
(F1.3058772222222224
F12.81494138888889
tp856
s(I6
I37
tp857
(F-47.737593055555557
F-7.7380969444444441
tp858
s(I10
I40
tp859
(F-34.099696111111115
F-7.7182222222222228
tp860
s(I32
I21
tp861
(F46.95973027777778
F54.711429444444448
tp862
s(I31
I39
tp863
(F22.374653611111111
F7.0567936111111109
tp864
s(I35
I32
tp865
(F37.507976944444444
F24.156054722222219
tp866
s(I18
I24
tp867
(F-20.10094916666667
F54.412558888888888
tp868
s(I43
I32
tp869
g9
s(I8
I30
tp870
(F-45.524109166666669
F25.423619166666668
tp871
s(I33
I10
tp872
(F106.36518416666667
F60.89760888888889
tp873
s(I14
I20
tp874
(F-46.113082500000004
F58.387286388888889
tp875
s(I36
I1
tp876
g9
s(I26
I27
tp877
(F13.322587499999999
F47.541458333333331
tp878
s(I12
I26
tp879
(F-39.305769444444444
F42.549264722222219
tp880
s(I2
I0
tp881
g9
s(I27
I8
tp882
(F133.3937411111111
F74.023934722222222
tp883
s(I30
I7
tp884
(F129.49771055555553
F64.407050277777785
tp885
s(I20
I25
tp886
(F-10.665011666666667
F53.102547222222221
tp887
s(I3
I35
tp888
g9
s(I42
I10
tp889
g9
s(I6
I28
tp890
(F-54.19996444444444
F25.289250555555558
tp891
s(I28
I41
tp892
(F14.157373888888889
F1.9499933333333332
tp893
s(I32
I44
tp894
g9
s(I31
I44
tp895
g9
s(I35
I41
tp896
(F35.672204166666667
F-17.695571944444445
tp897
s(I18
I19
tp898
(F-29.817721666666667
F66.283067500000001
tp899
s(I21
I6
tp900
(F-167.33998472222223
F72.290902500000001
tp901
s(I43
I25
tp902
(F72.077511666666666
F16.748505833333333
tp903
s(I8
I5
tp904
g9
s(I33
I3
tp905
(F144.83348444444445
F35.879737777777777
tp906
s(I14
I31
tp907
(F-26.739914166666669
F32.90042861111111
tp908
s(I36
I8
tp909
(F118.15399416666668
F47.115943611111113
tp910
s(I12
I17
tp911
(F-65.436638055555562
F59.129376388888886
tp912
s(I15
I4
tp913
(F-145.29990000000001
F54.159279444444444
tp914
s(I37
I23
tp915
(F58.082205277777781
F40.603189999999998
tp916
s(I2
I27
tp917
(F-68.799983055555558
F12.245539722222221
tp918
s(I27
I1
tp919
(F164.46022944444442
F41.709559722222224
tp920
s(I30
I14
tp921
(F72.556030277777779
F69.549248055555552
tp922
s(I20
I32
tp923
(F-7.7588747222222221
F34.611900833333337
tp924
s(I3
I40
tp925
g9
s(I6
I23
tp926
(F-63.916276666666668
F35.264956111111111
tp927
s(I28
I32
tp928
(F16.94867
F33.014607222222224
tp929
s(I32
I35
tp930
(F26.706027499999998
F20.032716388888886
tp931
s(I31
I21
tp932
(F43.078102222222228
F56.418700833333332
tp933
s(I18
I10
tp934
(F-111.20412444444445
F77.612412499999991
tp935
s(I40
I35
tp936
(F51.076635000000003
F-1.3288219444444445
tp937
s(I21
I15
tp938
(F-20.163715555555555
F78.848567500000001
tp939
s(I43
I30
tp940
(F65.778371111111113
F2.4800541666666667
tp941
s(I8
I12
tp942
(F-98.931317777777778
F49.28067027777778
tp943
s(I7
I44
tp944
g9
s(I11
I41
tp945
(F-31.401619722222222
F-11.199796944444445
tp946
s(I33
I4
tp947
(F139.64189249999998
F43.891771111111112
tp948
s(I39
I42
tp949
g9
s(I9
I19
tp950
(F-66.760480000000001
F49.233292500000005
tp951
s(I12
I8
tp952
(F-118.67597861111112
F57.865650000000002
tp953
s(I15
I13
tp954
(F-80.490878611111114
F70.2463075
tp955
s(I37
I16
tp956
(F80.849625555555548
F49.250653611111112
tp957
s(I2
I18
tp958
(F-89.56063555555555
F24.3369225
tp959
s(I27
I6
tp960
(F147.18762972222223
F68.341183333333333
tp961
s(I0
I36
tp962
g9
s(I3
I17
tp963
(F-89.619629999999987
F29.924241388888891
tp964
s(I6
I14
tp965
(F-93.475727500000005
F42.719416666666667
tp966
s(I31
I18
tp967
(F53.571328333333334
F61.996573055555558
tp968
s(I18
I5
tp969
(F-151.96806388888888
F64.813578888888884
tp970
s(I40
I42
tp971
g9
s(I21
I8
tp972
(F-159.38634861111112
F79.084612499999992
tp973
s(I43
I23
tp974
(F76.126759722222218
F20.20080861111111
tp975
s(I7
I37
tp976
(F-43.575292500000003
F-1.9961850000000001
tp977
s(I33
I29
tp978
(F34.932376388888883
F35.414339722222223
tp979
s(I39
I35
tp980
(F47.284336666666668
F3.532324722222222
tp981
s(I9
I20
tp982
(F-63.442730555555549
F47.873103888888892
tp983
s(I12
I7
tp984
(F-124.3773386111111
F55.568143888888891
tp985
s(I15
I10
tp986
(F-106.73953055555556
F69.629848055555556
tp987
s(I37
I25
tp988
(F53.63646111111111
F36.842919166666668
tp989
s(I24
I2
tp990
(F173.50608277777778
F53.881252777777782
tp991
s(I27
I31
tp992
(F14.395830833333333
F36.443558333333328
tp993
s(I3
I22
tp994
(F-75.140196111111123
F26.278301944444443
tp995
s(I25
I37
tp996
(F6.7671413888888887
F19.448326388888891
tp997
s(I6
I1
tp998
g9
s(I31
I27
tp999
(F31.141547222222222
F43.072207500000005
tp1000
s(I40
I17
tp1001
(F84.285298611111102
F38.586945555555559
tp1002
s(I21
I17
tp1003
(F-13.772120000000001
F73.737383055555554
tp1004
s(I43
I12
tp1005
g9
s(I7
I34
tp1006
(F-44.556544444444441
F10.928437499999999
tp1007
s(I11
I39
tp1008
(F-30.745810000000002
F1.2369275
tp1009
s(I33
I22
tp1010
(F47.821263333333334
F50.9695125
tp1011
s(I16
I42
tp1012
(F-16.848583888888889
F-4.6513272222222222
tp1013
s(I36
I37
tp1014
(F37.038546666666662
F5.0651158333333335
tp1015
s(I44
I37
tp1016
g9
s(I9
I29
tp1017
(F-43.913686388888884
F30.107653611111111
tp1018
s(I34
I15
tp1019
(F78.127904444444439
F58.514476666666667
tp1020
s(I15
I19
tp1021
(F-45.268057222222218
F62.016683055555553
tp1022
s(I37
I2
tp1023
g9
s(I24
I9
tp1024
(F151.14812083333334
F82.058854722222222
tp1025
s(I27
I20
tp1026
(F27.119133055555555
F63.975950833333336
tp1027
s(I13
I25
tp1028
(F-37.712090000000003
F46.35004
tp1029
s(I3
I31
tp1030
(F-60.512540833333333
F5.3533866666666663
tp1031
s(I28
I13
tp1032
(F73.846885277777773
F75.256553333333329
tp1033
s(I31
I0
tp1034
g9
s(I40
I24
tp1035
(F64.544968055555557
F30.525859722222222
tp1036
s(I21
I26
tp1037
(F-6.0644277777777775
F50.873550555555553
tp1038
s(I4
I38
tp1039
g9
s(I43
I5
tp1040
g9
s(I8
I33
tp1041
(F-42.349298888888889
F16.932664444444445
tp1042
s(I7
I27
tp1043
(F-52.869997222222224
F30.224237499999997
tp1044
s(I29
I42
tp1045
(F16.848583888888889
F-4.6513272222222222
tp1046
s(I16
I33
tp1047
(F-19.361524166666669
F29.37978027777778
tp1048
s(I36
I44
tp1049
g9
s(I22
I11
tp1050
(F-120.36899583333333
F88.524108611111103
tp1051
s(I44
I28
tp1052
(F72.892877500000012
F1.1747938888888889
tp1053
s(I9
I6
tp1054
(F-128.38064666666668
F40.057355277777773
tp1055
s(I34
I6
tp1056
(F128.79885472222222
F49.018390277777776
tp1057
s(I15
I24
tp1058
(F-32.266736666666667
F51.36318555555556
tp1059
s(I37
I11
tp1060
(F103.79816861111111
F48.425409166666661
tp1061
s(I24
I16
tp1062
(F16.343987222222221
F76.29589555555556
tp1063
s(I13
I18
tp1064
(F-57.510935000000003
F59.962718055555555
tp1065
s(I0
I9
tp1066
g9
s(I38
I26
tp1067
(F54.647729166666664
F32.367664722222223
tp1068
s(I3
I4
tp1069
g9
s(I28
I4
tp1070
(F151.75689583333335
F58.898044999999996
tp1071
s(I31
I9
tp1072
(F113.85122027777777
F65.603228611111106
tp1073
s(I40
I31
tp1074
(F53.366470833333338
F14.249834166666666
tp1075
s(I21
I35
tp1076
(F-4.2574797222222225
F26.103003333333334
tp1077
s(I8
I40
tp1078
g9
s(I7
I16
tp1079
(F-83.193769722222228
F46.070064444444448
tp1080
s(I29
I35
tp1081
(F18.350071666666668
F23.418555833333336
tp1082
s(I33
I32
tp1083
(F31.746548333333333
F27.51069138888889
tp1084
s(I16
I24
tp1085
(F-28.356741388888889
F52.53776083333333
tp1086
s(I36
I43
tp1087
g9
s(I41
I32
tp1088
(F55.909152222222218
F6.8593674999999994
tp1089
s(I22
I2
tp1090
(F-177.81810222222222
F54.289650833333333
tp1091
s(I44
I27
tp1092
(F73.585240277777771
F5.0242372222222222
tp1093
s(I9
I15
tp1094
(F-82.879816388888884
F52.795407499999996
tp1095
s(I12
I44
tp1096
g9
s(I34
I1
tp1097
g9
s(I24
I23
tp1098
(F7.3335358333333334
F58.514603611111113
tp1099
s(I10
I22
tp1100
(F-54.495060277777782
F46.964935833333335
tp1101
s(I13
I11
tp1102
(F-99.189348333333342
F64.677587500000001
tp1103
s(I0
I0
tp1104
g9
s(I38
I29
tp1105
(F49.778900555555552
F25.550079722222222
tp1106
s(I3
I13
tp1107
(F-105.03471972222222
F26.183532222222222
tp1108
s(I28
I3
tp1109
(F155.36720694444446
F54.092568888888891
tp1110
s(I1
I39
tp1111
g9
s(I40
I6
tp1112
g9
s(I21
I44
tp1113
(F-3.9271408333333331
F-13.24276361111111
tp1114
s(I4
I20
tp1115
(F-77.460114444444443
F32.614547222222221
tp1116
s(I7
I9
tp1117
(F-114.65845583333333
F40.710815277777783
tp1118
s(I16
I31
tp1119
(F-20.638715555555557
F34.954905277777783
tp1120
s(I41
I41
tp1121
g9
s(I22
I5
tp1122
(F-176.46282583333331
F68.888240555555569
tp1123
s(I44
I18
tp1124
(F93.885921944444448
F16.712958611111109
tp1125
s(I12
I43
tp1126
g9
s(I34
I24
tp1127
(F46.430988611111111
F45.136206666666666
tp1128
s(I24
I30
tp1129
(F5.0203452777777775
F40.37489166666667
tp1130
s(I10
I17
tp1131
(F-71.519804444444446
F54.143205833333333
tp1132
s(I13
I4
tp1133
(F-140.9905775
F47.872587222222222
tp1134
s(I0
I7
tp1135
g9
s(I38
I20
tp1136
(F69.182495000000003
F42.523301388888889
tp1137
s(I25
I1
tp1138
(F170.86516972222222
F45.582946944444451
tp1139
s(I28
I26
tp1140
(F21.731908055555554
F48.685683611111109
tp1141
s(I40
I13
tp1142
(F99.69309638888889
F37.903894166666667
tp1143
s(I4
I19
tp1144
(F-80.402370277777777
F33.499120555555557
tp1145
s(I26
I32
tp1146
(F10.842489444444444
F34.214264166666666
tp1147
s(I7
I6
tp1148
g9
s(I16
I22
tp1149
(F-32.168514166666661
F57.138861388888891
tp1150
s(I19
I3
tp1151
(F-163.14822555555554
F57.548227222222224
tp1152
s(I41
I18
tp1153
(F83.530984444444442
F34.15814944444444
tp1154
s(I22
I28
tp1155
(F-1.8276977777777779
F45.832856111111113
tp1156
s(I44
I9
tp1157
g9
s(I12
I34
tp1158
(F-30.146683888888887
F21.687067500000001
tp1159
s(I34
I19
tp1160
(F60.604321111111112
F54.081024166666673
tp1161
s(I17
I41
tp1162
(F-14.157373888888889
F1.9499933333333332
tp1163
s(I37
I38
tp1164
(F40.202869444444445
F-3.2707969444444442
tp1165
s(I10
I24
tp1166
(F-49.640609722222223
F43.190850277777777
tp1167
s(I35
I16
tp1168
(F75.889418611111111
F55.051504722222219
tp1169
s(I0
I30
tp1170
g9
s(I38
I15
tp1171
(F87.243858611111108
F46.394686944444445
tp1172
s(I25
I10
tp1173
(F121.88275972222222
F82.481125833333337
tp1174
s(I28
I17
tp1175
(F43.51251222222222
F69.204566944444451
tp1176
s(I14
I36
tp1177
(F-23.418813888888891
F18.101838888888889
tp1178
s(I4
I26
tp1179
(F-63.582729166666667
F23.351359166666668
tp1180
s(I26
I43
tp1181
(F9.0203638888888893
F-7.1814297222222221
tp1182
s(I29
I14
tp1183
(F68.693284722222231
F71.935736388888898
tp1184
s(I16
I13
tp1185
(F-77.516377777777777
F72.789432500000004
tp1186
s(I19
I8
tp1187
(F-139.75383444444444
F76.067955833333329
tp1188
s(I41
I27
tp1189
(F61.866695555555559
F21.191060555555556
tp1190
s(I22
I23
tp1191
(F-2.4517672222222222
F58.703053888888888
tp1192
s(I5
I37
tp1193
g9
s(I44
I0
tp1194
g9
s(I9
I34
tp1195
(F-38.646589722222224
F16.106905277777781
tp1196
s(I34
I42
tp1197
g9
s(I17
I34
tp1198
(F-15.9614975
F27.262540000000001
tp1199
s(I23
I12
tp1200
(F30.363740555555555
F87.480354722222231
tp1201
s(I10
I3
tp1202
g9
s(I35
I25
tp1203
(F47.546946666666663
F41.152729722222219
tp1204
s(I0
I21
tp1205
g9
s(I38
I6
tp1206
g9
s(I25
I19
tp1207
(F17.33072388888889
F68.09938388888888
tp1208
s(I1
I10
tp1209
g9
s(I39
I29
tp1210
(F52.736878333333337
F22.863781111111113
tp1211
s(I4
I1
tp1212
g9
s(I29
I7
tp1213
(F132.44294583333334
F66.953688333333332
tp1214
s(I16
I4
tp1215
(F-148.25138611111112
F56.700425833333334
tp1216
s(I19
I17
tp1217
(F-30.238625000000003
F72.007914999999997
tp1218
s(I2
I43
tp1219
g9
s(I41
I28
tp1220
(F60.315325277777774
F18.839371666666665
tp1221
s(I9
I43
tp1222
g9
s(I34
I37
tp1223
(F31.244373611111111
F9.8061152777777778
tp1224
s(I17
I27
tp1225
(F-20.67927527777778
F46.19472722222222
tp1226
s(I37
I40
tp1227
g9
s(I42
I37
tp1228
g9
s(I23
I5
tp1229
(F176.46282583333331
F68.888240555555569
tp1230
s(I10
I10
tp1231
(F-107.18416972222222
F54.442876111111104
tp1232
s(I35
I30
tp1233
(F39.684227777777771
F29.539205833333334
tp1234
s(I25
I20
tp1235
(F15.614622222222222
F65.61925833333332
tp1236
s(I11
I25
tp1237
(F-44.375488055555557
F43.044028611111109
tp1238
s(I1
I3
tp1239
g9
s(I39
I26
tp1240
(F57.586370000000002
F29.695310555555555
tp1241
s(I4
I8
tp1242
g9
s(I29
I0
tp1243
g9
s(I19
I22
tp1244
(F-18.149162777777779
F60.040431388888884
tp1245
s(I2
I34
tp1246
g9
s(I41
I5
tp1247
g9
s(I22
I33
tp1248
(F-1.5042702777777779
F32.16549222222222
tp1249
s(I5
I23
tp1250
(F-66.802350833333335
F32.200226944444445
tp1251
s(I9
I44
tp1252
g9
s(I30
I33
tp1253
(F22.275241944444442
F28.432725277777777
tp1254
s(I17
I28
tp1255
(F-19.749087500000002
F43.66253583333333
tp1256
s(I42
I44
tp1257
g9
s(I23
I2
tp1258
(F177.81810222222222
F54.289650833333333
tp1259
s(I32
I10
tp1260
(F106.23854444444444
F63.911025277777775
tp1261
s(I13
I40
tp1262
(F-24.977709166666664
F0.82158249999999999
tp1263
s(I35
I7
tp1264
(F123.21778027777778
F48.389133888888885
tp1265
s(I25
I29
tp1266
(F8.7056991666666654
F42.769690555555556
tp1267
s(I11
I30
tp1268
(F-36.736458611111111
F31.29461638888889
tp1269
s(I1
I4
tp1270
g9
s(I39
I19
tp1271
(F75.021431388888885
F40.612747500000005
tp1272
s(I26
I4
tp1273
(F160.46058249999999
F62.283228055555554
tp1274
s(I29
I25
tp1275
(F26.809326388888891
F50.169436111111111
tp1276
s(I19
I31
tp1277
(F-11.228976944444444
F36.981950000000005
tp1278
s(I41
I14
tp1279
(F97.914638611111116
F33.887928333333335
tp1280
s(I5
I16
tp1281
(F-87.870353611111099
F38.893410833333334
tp1282
s(I30
I40
tp1283
(F19.52481222222222
F4.1627741666666669
tp1284
s(I17
I21
tp1285
(F-29.850713611111111
F60.586640277777782
tp1286
s(I20
I6
tp1287
(F-159.65950138888888
F71.35802249999999
tp1288
s(I42
I23
tp1289
(F72.790160833333331
F24.866754444444446
tp1290
s(I23
I27
tp1291
(F1.9197694444444442
F48.444184722222218
tp1292
s(I32
I1
tp1293
g9
s(I13
I33
tp1294
(F-28.040970833333336
F26.084224722222221
tp1295
s(I35
I12
tp1296
(F96.170103055555558
F56.027665277777778
tp1297
s(I18
I44
tp1298
(F-12.063397500000001
F-16.869968055555557
tp1299
s(I38
I43
tp1300
g9
s(I11
I23
tp1301
(F-48.710340277777782
F47.138621111111114
tp1302
s(I14
I0
tp1303
g9
s(I36
I21
tp1304
(F60.398106666666664
F46.364449999999998
tp1305
s(I1
I29
tp1306
(F-73.691253333333336
F-5.3665419444444442
tp1307
s(I39
I8
tp1308
(F121.52386722222222
F30.650466666666667
tp1309
s(I26
I15
tp1310
(F41.428103333333333
F76.402958611111117
tp1311
s(I29
I18
tp1312
(F44.408668333333331
F65.617062222222216
tp1313
s(I15
I35
tp1314
(F-21.141480277777777
F22.451912222222223
tp1315
s(I19
I36
tp1316
(F-9.6797236111111111
F22.308711666666667
tp1317
s(I5
I25
tp1318
(F-62.461771388888891
F28.698649444444445
tp1319
s(I27
I36
tp1320
(F12.436280555555555
F21.766221944444446
tp1321
s(I30
I19
tp1322
(F45.268057222222218
F62.016683055555553
tp1323
s(I17
I14
tp1324
(F-63.974586666666667
F74.215005555555564
tp1325
s(I20
I13
tp1326
(F-52.853888333333337
F81.987189444444439
tp1327
s(I42
I30
tp1328
(F61.311133333333331
F8.9045219444444452
tp1329
s(I23
I16
tp1330
(F5.5579052777777775
F76.735548611111113
tp1331
s(I6
I40
tp1332
g9
s(I10
I39
tp1333
(F-33.763239722222224
F-1.5630644444444446
tp1334
s(I32
I24
tp1335
(F39.634495000000001
F48.554544166666666
tp1336
s(I18
I39
tp1337
(F-11.768545833333334
F11.306931111111112
tp1338
s(I38
I34
tp1339
(F44.556544444444441
F10.928437499999999
tp1340
s(I8
I17
tp1341
(F-76.8493136111111
F48.562696388888888
tp1342
s(I11
I12
tp1343
(F-94.836578055555549
F59.140301944444445
tp1344
s(I14
I11
tp1345
(F-98.522958611111108
F67.542604999999995
tp1346
s(I36
I28
tp1347
(F45.357213333333334
F32.511131111111112
tp1348
s(I1
I22
tp1349
(F-82.385694166666667
F15.408470833333334
tp1350
s(I39
I1
tp1351
g9
s(I26
I22
tp1352
(F18.149162777777779
F60.040431388888884
tp1353
s(I15
I40
tp1354
(F-19.52481222222222
F4.1627741666666669
tp1355
s(I2
I15
tp1356
(F-100.41502833333334
F22.123541944444444
tp1357
s(I24
I32
tp1358
(F4.6611347222222221
F34.876427499999998
tp1359
s(I5
I2
tp1360
g9
s(I30
I26
tp1361
(F29.068435277777777
F46.679614166666667
tp1362
s(I17
I7
tp1363
(F-136.25469472222221
F69.297085833333327
tp1364
s(I20
I20
tp1365
(F-15.614622222222222
F65.61925833333332
tp1366
s(I42
I25
tp1367
(F68.613719166666655
F21.447099722222223
tp1368
s(I23
I41
tp1369
(F1.2775874999999999
F4.6705244444444451
tp1370
s(I6
I35
tp1371
(F-47.284336666666668
F3.532324722222222
tp1372
s(I32
I31
tp1373
(F29.735287777777778
F31.650414999999999
tp1374
s(I18
I30
tp1375
(F-14.943771388888889
F39.142204722222225
tp1376
s(I38
I37
tp1377
(F43.575292500000003
F-1.9961850000000001
tp1378
s(I43
I42
tp1379
g9
s(I8
I24
tp1380
(F-55.761049722222225
F38.78151444444444
tp1381
s(I11
I5
tp1382
(F-133.83066666666667
F44.88626277777778
tp1383
s(I14
I18
tp1384
(F-53.571328333333334
F61.996573055555558
tp1385
s(I36
I27
tp1386
(F46.949252777777772
F34.807454166666666
tp1387
s(I26
I17
tp1388
(F30.238625000000003
F72.007914999999997
tp1389
s(I12
I28
tp1390
(F-36.240000277777781
F37.870848888888887
tp1391
s(I2
I6
tp1392
g9
s(I24
I39
tp1393
(F3.9180547222222222
F12.666739166666666
tp1394
s(I5
I11
tp1395
(F-108.46570444444444
F34.915546388888885
tp1396
s(I30
I29
tp1397
(F25.497878611111112
F39.255345833333337
tp1398
s(I20
I19
tp1399
(F-17.33072388888889
F68.09938388888888
tp1400
s(I42
I0
tp1401
g9
s(I23
I38
tp1402
(F1.3276325
F16.440153611111111
tp1403
s(I6
I26
tp1404
(F-57.586370000000002
F29.695310555555555
tp1405
s(I10
I41
tp1406
(F-35.672204166666667
F-17.695571944444445
tp1407
s(I32
I22
tp1408
(F44.220828888888889
F52.742294722222226
tp1409
s(I31
I38
tp1410
(F22.636729444444445
F11.029473611111111
tp1411
s(I35
I35
tp1412
(F35.101027500000001
F14.950271666666666
tp1413
s(I18
I25
tp1414
(F-18.935818333333334
F51.952386111111117
tp1415
s(I43
I35
tp1416
g9
s(I8
I31
tp1417
(F-44.335388055555555
F22.758973888888889
tp1418
s(I33
I9
tp1419
(F112.64890527777779
F59.624665555555559
tp1420
s(I14
I21
tp1421
(F-43.078102222222228
F56.418700833333332
tp1422
s(I36
I2
tp1423
g9
s(I26
I24
tp1424
(F15.77816138888889
F55.104782499999999
tp1425
s(I12
I27
tp1426
(F-37.692169722222218
F40.248273055555558
tp1427
s(I2
I1
tp1428
g9
s(I27
I11
tp1429
(F97.033114166666664
F78.374357777777774
tp1430
s(I30
I4
tp1431
(F145.29990000000001
F54.159279444444444
tp1432
s(I20
I26
tp1433
(F-10.072795833333332
F50.558775833333328
tp1434
s(I3
I34
tp1435
g9
s(I42
I11
tp1436
g9
s(I6
I29
tp1437
(F-52.736878333333337
F22.863781111111113
tp1438
s(I28
I42
tp1439
(F14.172280277777777
F-3.2504761111111109
tp1440
s(I35
I40
tp1441
(F34.099696111111115
F-7.7182222222222228
tp1442
s(I18
I16
tp1443
(F-42.54284222222222
F72.794715555555555
tp1444
s(I21
I5
tp1445
(F-169.53916416666667
F68.45811888888889
tp1446
s(I43
I24
tp1447
(F74.009016111111109
F18.596908333333332
tp1448
s(I8
I6
tp1449
(F-129.26356027777777
F33.658646111111111
tp1450
s(I33
I2
tp1451
g9
s(I14
I28
tp1452
(F-29.853246666666667
F40.630488888888891
tp1453
s(I36
I9
tp1454
(F113.02873638888889
F49.310828888888885
tp1455
s(I39
I44
tp1456
g9
s(I12
I18
tp1457
(F-61.10539416666667
F57.790088888888889
tp1458
s(I15
I7
tp1459
(F-129.49771055555553
F64.407050277777785
tp1460
s(I37
I22
tp1461
(F60.613951388888893
F42.302029444444443
tp1462
s(I2
I24
tp1463
(F-74.009016111111109
F18.596908333333332
tp1464
s(I27
I0
tp1465
g9
s(I30
I15
tp1466
(F65.446697222222227
F68.501831388888888
tp1467
s(I20
I33
tp1468
(F-7.5098036111111108
F31.77197
tp1469
s(I3
I43
tp1470
g9
s(I6
I20
tp1471
(F-71.938913333333332
F39.5256325
tp1472
s(I28
I33
tp1473
(F16.426478055555556
F30.183599722222223
tp1474
s(I32
I36
tp1475
(F26.165670833333333
F16.766346666666667
tp1476
s(I31
I20
tp1477
(F46.113082500000004
F58.387286388888889
tp1478
s(I18
I11
tp1479
(F-97.033114166666664
F78.374357777777774
tp1480
s(I40
I36
tp1481
(F51.745976388888892
F-7.9227988888888889
tp1482
s(I21
I14
tp1483
(F-26.352120277777779
F81.36214722222222
tp1484
s(I43
I17
tp1485
(F92.8759086111111
F24.180431666666667
tp1486
s(I8
I13
tp1487
(F-94.162400555555564
F49.748138611111109
tp1488
s(I11
I40
tp1489
(F-30.826754722222223
F-4.1332377777777776
tp1490
s(I33
I27
tp1491
(F37.692169722222218
F40.248273055555558
tp1492
s(I39
I37
tp1493
(F47.737593055555557
F-7.7380969444444441
tp1494
s(I9
I18
tp1495
(F-70.362477222222211
F50.427616666666665
tp1496
s(I12
I9
tp1497
(F-112.64890527777779
F59.624665555555559
tp1498
s(I15
I12
tp1499
(F-89.061292222222221
F70.526060277777773
tp1500
s(I37
I31
tp1501
(F44.335388055555555
F22.758973888888889
tp1502
s(I2
I19
tp1503
(F-86.475028333333341
F24.099447777777776
tp1504
s(I27
I25
tp1505
(F18.935818333333334
F51.952386111111117
tp1506
s(I0
I37
tp1507
g9
s(I20
I40
tp1508
(F-6.4496025000000001
F8.4455519444444445
tp1509
s(I3
I16
tp1510
(F-93.092182499999993
F29.780984999999998
tp1511
s(I25
I35
tp1512
(F7.0914786111111106
F25.839154722222222
tp1513
s(I6
I15
tp1514
(F-89.406383888888897
F42.830110833333336
tp1515
s(I31
I29
tp1516
(F28.700100833333334
F38.124767222222225
tp1517
s(I18
I2
tp1518
(F-161.8153575
F50.143966944444443
tp1519
s(I40
I43
tp1520
g9
s(I21
I23
tp1521
(F-7.3335358333333334
F58.514603611111113
tp1522
s(I43
I22
tp1523
(F78.429486944444449
F21.563592222222223
tp1524
s(I7
I36
tp1525
(F-43.616721944444443
F2.9945805555555558
tp1526
s(I11
I33
tp1527
(F-33.746169166666668
F23.064009722222224
tp1528
s(I33
I28
tp1529
(F36.240000277777781
F37.870848888888887
tp1530
s(I39
I34
tp1531
(F47.720888333333335
F7.6255211111111114
tp1532
s(I9
I27
tp1533
(F-46.949252777777772
F34.807454166666666
tp1534
s(I12
I0
tp1535
g9
s(I15
I21
tp1536
(F-38.941724999999998
F57.97168527777778
tp1537
s(I37
I24
tp1538
(F55.761049722222225
F38.78151444444444
tp1539
s(I24
I3
tp1540
(F172.45529916666666
F59.48629722222222
tp1541
s(I27
I30
tp1542
(F14.943771388888889
F39.142204722222225
tp1543
s(I13
I31
tp1544
(F-29.735287777777778
F31.650414999999999
tp1545
s(I3
I25
tp1546
(F-68.613719166666655
F21.447099722222223
tp1547
s(I25
I36
tp1548
(F6.9181647222222225
F22.712387499999998
tp1549
s(I6
I6
tp1550
g9
s(I31
I26
tp1551
(F32.583795000000002
F45.452939444444446
tp1552
s(I40
I18
tp1553
(F80.889199166666671
F38.027458055555556
tp1554
s(I21
I16
tp1555
(F-16.343987222222221
F76.29589555555556
tp1556
s(I43
I15
tp1557
(F100.41502833333334
F22.123541944444444
tp1558
s(I7
I29
tp1559
(F-49.778900555555552
F25.550079722222222
tp1560
s(I11
I38
tp1561
(F-30.912078333333334
F5.7791300000000003
tp1562
s(I33
I21
tp1563
(F50.607390277777782
F52.853673888888892
tp1564
s(I16
I43
tp1565
(F-17.151877499999998
F-11.593571666666667
tp1566
s(I36
I38
tp1567
(F36.871203888888893
F0.44674277777777777
tp1568
s(I44
I38
tp1569
g9
s(I9
I28
tp1570
(F-45.357213333333334
F32.511131111111112
tp1571
s(I34
I12
tp1572
(F94.836578055555549
F59.140301944444445
tp1573
s(I15
I18
tp1574
(F-49.225113333333333
F63.885205277777779
tp1575
s(I37
I1
tp1576
g9
s(I24
I10
tp1577
(F135.02461611111113
F84.587734444444436
tp1578
s(I27
I23
tp1579
(F21.450569999999999
F56.845486666666666
tp1580
s(I13
I24
tp1581
(F-39.634495000000001
F48.554544166666666
tp1582
s(I3
I30
tp1583
(F-61.311133333333331
F8.9045219444444452
tp1584
s(I28
I14
tp1585
(F63.974586666666667
F74.215005555555564
tp1586
s(I31
I3
tp1587
(F147.2638938888889
F45.685876944444438
tp1588
s(I40
I25
tp1589
(F62.461771388888891
F28.698649444444445
tp1590
s(I21
I25
tp1591
(F-6.4250533333333335
F53.433768611111105
tp1592
s(I4
I39
tp1593
g9
s(I43
I4
tp1594
g9
s(I8
I34
tp1595
(F-41.555117222222222
F13.708444722222222
tp1596
s(I7
I26
tp1597
(F-54.647729166666664
F32.367664722222223
tp1598
s(I29
I41
tp1599
(F16.793043611111113
F0.77862888888888893
tp1600
s(I16
I34
tp1601
(F-18.825051111111112
F26.455451388888889
tp1602
s(I22
I8
tp1603
(F-172.80138416666668
F79.785196666666664
tp1604
s(I44
I29
tp1605
(F73.691253333333336
F-5.3665419444444442
tp1606
s(I9
I5
tp1607
(F-134.02658027777778
F33.439092222222222
tp1608
s(I34
I7
tp1609
(F123.60102055555555
F52.146539722222222
tp1610
s(I15
I27
tp1611
(F-27.738137500000001
F44.259878333333333
tp1612
s(I37
I10
tp1613
(F108.72319388888889
F47.120886944444443
tp1614
s(I24
I17
tp1615
(F13.772120000000001
F73.737383055555554
tp1616
s(I13
I17
tp1617
(F-61.972358611111112
F61.424329722222218
tp1618
s(I0
I10
tp1619
g9
s(I38
I27
tp1620
(F52.869997222222224
F30.224237499999997
tp1621
s(I3
I7
tp1622
g9
s(I28
I5
tp1623
(F147.52334305555556
F62.919548888888883
tp1624
s(I31
I8
tp1625
(F120.85573777777778
F63.892047777777776
tp1626
s(I40
I0
tp1627
g9
s(I21
I34
tp1628
(F-4.3764166666666666
F29.11496166666667
tp1629
s(I8
I41
tp1630
g9
s(I7
I19
tp1631
(F-72.343635833333323
F43.701850555555559
tp1632
s(I29
I34
tp1633
(F18.825051111111112
F26.455451388888889
tp1634
s(I33
I39
tp1635
(F27.87550388888889
F3.5263605555555553
tp1636
s(I16
I25
tp1637
(F-26.809326388888891
F50.169436111111111
tp1638
s(I41
I39
tp1639
g9
s(I22
I3
tp1640
(F-177.46208527777776
F59.877439444444448
tp1641
s(I44
I20
tp1642
(F87.584381944444445
F16.980258333333332
tp1643
s(I9
I14
tp1644
(F-87.573384444444443
F53.091523888888894
tp1645
s(I34
I30
tp1646
(F36.736458611111111
F31.29461638888889
tp1647
s(I24
I24
tp1648
(F6.8433555555555552
F55.979196111111115
tp1649
s(I10
I23
tp1650
(F-51.949529166666665
F45.13037666666667
tp1651
s(I13
I10
tp1652
(F-106.23854444444444
F63.911025277777775
tp1653
s(I0
I1
tp1654
g9
s(I38
I18
tp1655
(F75.734045277777781
F44.699258888888885
tp1656
s(I3
I12
tp1657
(F-110.02991888888889
F22.711168055555554
tp1658
s(I28
I28
tp1659
(F19.749087500000002
F43.66253583333333
tp1660
s(I1
I38
tp1661
g9
s(I40
I7
tp1662
g9
s(I21
I43
tp1663
(F-3.8431500000000001
F-5.9300408333333339
tp1664
s(I4
I21
tp1665
(F-74.702929722222223
F31.52382888888889
tp1666
s(I26
I38
tp1667
(F9.293619722222223
F15.585944722222223
tp1668
s(I7
I8
tp1669
(F-119.65264222222223
F37.561416666666666
tp1670
s(I16
I16
tp1671
(F-54.484191944444447
F69.211467222222225
tp1672
s(I41
I40
tp1673
g9
s(I22
I26
tp1674
(F-2.0249833333333331
F51.031253888888891
tp1675
s(I44
I19
tp1676
(F90.569559999999996
F17.137031666666665
tp1677
s(I12
I36
tp1678
(F-28.924589166666667
F15.232197777777778
tp1679
s(I34
I25
tp1680
(F44.375488055555557
F43.044028611111109
tp1681
s(I24
I31
tp1682
(F4.8302808333333331
F37.653130833333329
tp1683
s(I10
I30
tp1684
(F-39.684227777777771
F29.539205833333334
tp1685
s(I13
I3
tp1686
(F-145.6452447222222
F41.565067777777777
tp1687
s(I0
I24
tp1688
g9
s(I38
I21
tp1689
(F66.246935555555552
F41.179934722222221
tp1690
s(I25
I0
tp1691
g9
s(I28
I27
tp1692
(F20.67927527777778
F46.19472722222222
tp1693
s(I14
I34
tp1694
(F-24.507860833333332
F24.396747222222221
tp1695
s(I40
I14
tp1696
(F95.580537777777778
F38.603568055555556
tp1697
s(I4
I28
tp1698
(F-60.315325277777774
F18.839371666666665
tp1699
s(I26
I33
tp1700
(F10.497974999999999
F31.377092777777779
tp1701
s(I7
I1
tp1702
g9
s(I16
I23
tp1703
(F-30.128064444444444
F54.861769444444448
tp1704
s(I19
I2
tp1705
(F-165.42380499999999
F51.822477500000005
tp1706
s(I41
I17
tp1707
(F86.846108055555547
F34.566374444444442
tp1708
s(I22
I29
tp1709
(F-1.7466441666666668
F43.190994999999994
tp1710
s(I44
I10
tp1711
g9
s(I12
I35
tp1712
(F-29.488675555555556
F18.55388388888889
tp1713
s(I34
I16
tp1714
(F73.173598333333345
F57.725744444444445
tp1715
s(I17
I40
tp1716
(F-14.241452222222222
F6.4646627777777779
tp1717
s(I37
I37
tp1718
(F40.15230583333333
F1.9599169444444444
tp1719
s(I10
I25
tp1720
(F-47.546946666666663
F41.152729722222219
tp1721
s(I35
I19
tp1722
(F63.773670833333334
F51.734220555555559
tp1723
s(I0
I31
tp1724
g9
s(I38
I12
tp1725
(F100.4303663888889
F45.53579055555555
tp1726
s(I25
I9
tp1727
(F138.02092388888892
F80.437676666666675
tp1728
s(I28
I18
tp1729
(F39.061545555555554
F67.175376666666665
tp1730
s(I14
I37
tp1731
(F-22.98790277777778
F14.686028055555555
tp1732
s(I4
I27
tp1733
(F-61.866695555555559
F21.191060555555556
tp1734
s(I26
I40
tp1735
(F9.0368411111111104
F7.9615566666666666
tp1736
s(I29
I13
tp1737
(F77.516377777777777
F72.789432500000004
tp1738
s(I16
I14
tp1739
(F-68.693284722222231
F71.935736388888898
tp1740
s(I19
I11
tp1741
(F-97.317208611111113
F80.976893888888895
tp1742
s(I41
I26
tp1743
(F63.582729166666667
F23.351359166666668
tp1744
s(I22
I20
tp1745
(F-3.1754355555555556
F66.348617222222217
tp1746
s(I5
I36
tp1747
(F-51.745976388888892
F-7.9227988888888889
tp1748
s(I44
I1
tp1749
g9
s(I9
I33
tp1750
(F-39.454448333333339
F19.232246666666665
tp1751
s(I34
I43
tp1752
g9
s(I17
I33
tp1753
(F-16.426478055555556
F30.183599722222223
tp1754
s(I23
I15
tp1755
(F6.9387725000000007
F79.400330833333342
tp1756
s(I10
I0
tp1757
g9
s(I35
I24
tp1758
(F49.640609722222223
F43.190850277777777
tp1759
s(I0
I22
tp1760
g9
s(I38
I7
tp1761
(F125.08165722222222
F32.667299444444446
tp1762
s(I25
I18
tp1763
(F19.513539722222223
F70.570999444444439
tp1764
s(I14
I44
tp1765
g9
s(I1
I9
tp1766
g9
s(I39
I28
tp1767
(F54.19996444444444
F25.289250555555558
tp1768
s(I4
I2
tp1769
g9
s(I29
I6
tp1770
(F138.57271194444445
F64.112449166666664
tp1771
s(I16
I5
tp1772
(F-143.7827513888889
F60.729133333333337
tp1773
s(I19
I16
tp1774
(F-35.002571666666668
F74.265179722222229
tp1775
s(I2
I40
tp1776
g9
s(I41
I3
tp1777
g9
s(I9
I42
tp1778
g9
s(I34
I34
tp1779
(F32.963088055555559
F20.053610555555558
tp1780
s(I17
I26
tp1781
(F-21.731908055555554
F48.685683611111109
tp1782
s(I42
I34
tp1783
g9
s(I23
I4
tp1784
(F177.02572222222224
F64.641803333333343
tp1785
s(I10
I11
tp1786
(F-101.66698527777778
F55.439526388888886
tp1787
s(I35
I1
tp1788
g9
s(I25
I27
tp1789
(F9.5569605555555555
F47.992258611111112
tp1790
s(I11
I24
tp1791
(F-46.430988611111111
F45.136206666666666
tp1792
s(I1
I2
tp1793
g9
s(I39
I21
tp1794
(F69.063965555555555
F38.263565277777779
tp1795
s(I4
I9
tp1796
g9
s(I29
I31
tp1797
(F20.638715555555557
F34.954905277777783
tp1798
s(I19
I25
tp1799
(F-14.842175833333334
F52.607951944444444
tp1800
s(I2
I35
tp1801
g9
s(I41
I4
tp1802
g9
s(I22
I38
tp1803
(F-1.3276325
F16.440153611111111
tp1804
s(I5
I22
tp1805
(F-69.24004444444445
F33.717730277777783
tp1806
s(I27
I41
tp1807
(F11.551823055555555
F2.887095
tp1808
s(I30
I38
tp1809
(F19.947686111111111
F12.298030555555556
tp1810
s(I17
I19
tp1811
(F-35.410185555555557
F65.047080555555553
tp1812
s(I23
I29
tp1813
(F1.7466441666666668
F43.190994999999994
tp1814
s(I32
I11
tp1815
(F99.189348333333342
F64.677587500000001
tp1816
s(I13
I39
tp1817
(F-25.095789722222221
F5.4405244444444447
tp1818
s(I35
I6
tp1819
(F128.32459638888889
F44.914927777777777
tp1820
s(I25
I28
tp1821
(F9.1046019444444433
F45.397836111111111
tp1822
s(I11
I17
tp1823
(F-68.598671111111102
F56.704059166666667
tp1824
s(I1
I27
tp1825
(F-73.585240277777771
F5.0242372222222222
tp1826
s(I39
I18
tp1827
(F78.313333611111105
F41.508521666666667
tp1828
s(I26
I5
tp1829
(F157.14623749999998
F66.389080277777779
tp1830
s(I29
I24
tp1831
(F28.356741388888889
F52.53776083333333
tp1832
s(I15
I37
tp1833
(F-20.277803055555555
F15.887650833333334
tp1834
s(I19
I30
tp1835
(F-11.662710000000001
F39.690468055555549
tp1836
s(I41
I13
tp1837
(F102.00312305555556
F32.796372777777776
tp1838
s(I5
I31
tp1839
(F-53.366470833333338
F14.249834166666666
tp1840
s(I30
I41
tp1841
(F19.472577777777776
F-0.66317583333333341
tp1842
s(I17
I20
tp1843
(F-32.384508611111109
F62.845276388888891
tp1844
s(I20
I7
tp1845
(F-155.0153238888889
F74.748161388888889
tp1846
s(I42
I20
tp1847
(F80.376362499999999
F28.473558611111109
tp1848
s(I23
I26
tp1849
(F2.0249833333333331
F51.031253888888891
tp1850
s(I32
I2
tp1851
g9
s(I13
I32
tp1852
(F-28.840534999999999
F28.919331388888889
tp1853
s(I35
I15
tp1854
(F80.57762249999999
F55.725838055555556
tp1855
s(I38
I40
tp1856
g9
s(I11
I22
tp1857
(F-51.239186666666669
F49.044929444444442
tp1858
s(I14
I1
tp1859
g9
s(I36
I22
tp1860
(F57.611638333333332
F44.721718888888894
tp1861
s(I1
I28
tp1862
(F-72.892877500000012
F1.1747938888888889
tp1863
s(I39
I11
tp1864
(F106.59001222222221
F40.076437222222225
tp1865
s(I26
I12
tp1866
(F78.666422777777782
F80.871496388888886
tp1867
s(I29
I17
tp1868
(F49.000857222222223
F67.494224722222228
tp1869
s(I15
I34
tp1870
(F-21.673506944444444
F25.502465277777777
tp1871
s(I19
I39
tp1872
(F-9.1478194444444441
F11.917244722222222
tp1873
s(I5
I24
tp1874
(F-64.544968055555557
F30.525859722222222
tp1875
s(I27
I39
tp1876
(F11.768545833333334
F11.306931111111112
tp1877
s(I30
I16
tp1878
(F59.220589722222222
F67.170936944444449
tp1879
s(I17
I13
tp1880
(F-73.846885277777773
F75.256553333333329
tp1881
s(I20
I14
tp1882
(F-39.995653611111109
F80.045048055555554
tp1883
s(I42
I31
tp1884
(F60.512540833333333
F5.3533866666666663
tp1885
s(I23
I19
tp1886
(F3.5413855555555553
F68.914511666666669
tp1887
s(I6
I41
tp1888
g9
s(I10
I36
tp1889
(F-34.529951944444441
F11.450210833333333
tp1890
s(I32
I25
tp1891
(F37.712090000000003
F46.35004
tp1892
s(I18
I36
tp1893
(F-12.436280555555555
F21.766221944444446
tp1894
s(I38
I35
tp1895
(F43.977392500000001
F7.2067399999999999
tp1896
s(I8
I18
tp1897
(F-73.098879166666663
F47.659444444444446
tp1898
s(I11
I15
tp1899
(F-78.127904444444439
F58.514476666666667
tp1900
s(I14
I8
tp1901
(F-120.85573777777778
F63.892047777777776
tp1902
s(I36
I29
tp1903
(F43.913686388888884
F30.107653611111111
tp1904
s(I1
I21
tp1905
(F-84.866028055555546
F16.381617500000001
tp1906
s(I39
I0
tp1907
g9
s(I26
I23
tp1908
(F16.867689166666668
F57.581598888888891
tp1909
s(I15
I43
tp1910
(F-20.112651944444448
F-14.218316666666666
tp1911
s(I19
I44
tp1912
(F-9.272855555555557
F-15.123325833333334
tp1913
s(I2
I12
tp1914
g9
s(I24
I33
tp1915
(F4.5104813888888886
F32.034464166666666
tp1916
s(I5
I1
tp1917
g9
s(I30
I27
tp1918
(F27.738137500000001
F44.259878333333333
tp1919
s(I17
I6
tp1920
(F-142.4405763888889
F66.359159166666657
tp1921
s(I20
I21
tp1922
(F-14.232878611111111
F63.132956666666665
tp1923
s(I42
I6
tp1924
g9
s(I23
I40
tp1925
(F1.2889449999999998
F8.9227033333333328
tp1926
s(I6
I32
tp1927
(F-49.240592777777778
F14.499289166666665
tp1928
s(I32
I16
tp1929
(F66.976335000000006
F62.692493888888883
tp1930
s(I18
I31
tp1931
(F-14.395830833333333
F36.443558333333328
tp1932
s(I8
I25
tp1933
(F-53.63646111111111
F36.842919166666668
tp1934
s(I11
I4
tp1935
(F-138.94606583333334
F38.902082777777778
tp1936
s(I14
I19
tp1937
(F-49.587803888888892
F60.253608333333332
tp1938
s(I36
I4
tp1939
g9
s(I26
I30
tp1940
(F11.662710000000001
F39.690468055555549
tp1941
s(I12
I29
tp1942
(F-34.932376388888883
F35.414339722222223
tp1943
s(I2
I7
tp1944
g9
s(I24
I40
tp1945
(F3.8677844444444447
F8.7643919444444442
tp1946
s(I5
I10
tp1947
(F-113.248715
F32.165409444444442
tp1948
s(I30
I2
tp1949
(F153.4751411111111
F41.720220833333336
tp1950
s(I20
I28
tp1951
(F-9.1046019444444433
F45.397836111111111
tp1952
s(I42
I1
tp1953
g9
s(I23
I33
tp1954
(F1.5042702777777779
F32.16549222222222
tp1955
s(I6
I27
tp1956
(F-55.814678611111106
F27.563502777777778
tp1957
s(I28
I44
tp1958
(F15.036852777777778
F-19.575759166666668
tp1959
s(I32
I23
tp1960
(F41.792458055555556
F50.687171111111105
tp1961
s(I31
I33
tp1962
(F25.167808888888889
F27.336764166666665
tp1963
s(I35
I34
tp1964
(F35.790917777777778
F18.204938333333331
tp1965
s(I18
I22
tp1966
(F-23.02817972222222
F59.25163222222222
tp1967
s(I43
I34
tp1968
g9
s(I8
I0
tp1969
g9
s(I33
I8
tp1970
(F118.67597861111112
F57.865650000000002
tp1971
s(I14
I26
tp1972
(F-32.583795000000002
F45.452939444444446
tp1973
s(I36
I3
tp1974
g9
s(I26
I25
tp1975
(F14.842175833333334
F52.607951944444444
tp1976
s(I12
I20
tp1977
(F-53.724948333333337
F54.629786666666668
tp1978
s(I2
I30
tp1979
(F-65.778371111111113
F2.4800541666666667
tp1980
s(I27
I10
tp1981
(F111.20412444444445
F77.612412499999991
tp1982
s(I30
I5
tp1983
(F140.69217055555555
F58.251716944444446
tp1984
s(I0
I40
tp1985
g9
s(I20
I27
tp1986
(F-9.5569605555555555
F47.992258611111112
tp1987
s(I3
I37
tp1988
g9
s(I42
I8
tp1989
g9
s(I6
I18
tp1990
(F-78.313333611111105
F41.508521666666667
tp1991
s(I28
I43
tp1992
(F14.357772222222222
F-9.6812199999999997
tp1993
s(I35
I43
tp1994
g9
s(I18
I17
tp1995
(F-37.281693611111109
F70.720431388888898
tp1996
s(I21
I4
tp1997
(F-171.17580611111111
F64.241121388888885
tp1998
s(I43
I27
tp1999
(F68.799983055555558
F12.245539722222221
tp2000
s(I8
I7
tp2001
(F-123.75411777777778
F39.185540555555555
tp2002
s(I33
I1
tp2003
g9
s(I14
I29
tp2004
(F-28.700100833333334
F38.124767222222225
tp2005
s(I36
I10
tp2006
(F107.85778944444444
F50.922507499999995
tp2007
s(I12
I19
tp2008
(F-57.211985000000006
F56.281966666666669
tp2009
s(I15
I6
tp2010
(F-135.46702111111111
F61.621478611111108
tp2011
s(I37
I21
tp2012
(F63.370086666666666
F43.869566944444443
tp2013
s(I2
I25
tp2014
(F-72.077511666666666
F16.748505833333333
tp2015
s(I27
I3
tp2016
(F159.03730666666667
F56.010981666666666
tp2017
s(I30
I12
tp2018
(F89.061292222222221
F70.526060277777773
tp2019
s(I20
I34
tp2020
(F-7.2881252777777776
F28.852744166666668
tp2021
s(I3
I42
tp2022
g9
s(I6
I21
tp2023
(F-69.063965555555555
F38.263565277777779
tp2024
s(I28
I34
tp2025
(F15.9614975
F27.262540000000001
tp2026
s(I32
I37
tp2027
(F25.711550555555554
F13.289897777777778
tp2028
s(I31
I23
tp2029
(F38.084879722222226
F52.232974722222224
tp2030
s(I18
I8
tp2031
(F-133.3937411111111
F74.023934722222222
tp2032
s(I40
I37
tp2033
g9
s(I21
I13
tp2034
(F-37.665626111111109
F83.736481111111118
tp2035
s(I43
I16
tp2036
(F96.462186388888895
F23.517676944444442
tp2037
s(I8
I14
tp2038
(F-89.534050555555552
F49.874368611111109
tp2039
s(I11
I43
tp2040
g9
s(I33
I26
tp2041
(F39.305769444444444
F42.549264722222219
tp2042
s(I39
I36
tp2043
(F47.183088055555551
F-1.3243688888888889
tp2044
s(I9
I17
tp2045
(F-74.253794722222224
F51.435593888888889
tp2046
s(I12
I10
tp2047
(F-106.36518416666667
F60.89760888888889
tp2048
s(I15
I15
tp2049
(F-65.446697222222227
F68.501831388888888
tp2050
s(I37
I30
tp2051
(F45.524109166666669
F25.423619166666668
tp2052
s(I2
I16
tp2053
(F-96.462186388888895
F23.517676944444442
tp2054
s(I27
I24
tp2055
(F20.10094916666667
F54.412558888888888
tp2056
s(I0
I38
tp2057
g9
s(I20
I41
tp2058
(F-6.3961875000000008
F4.1471363888888897
tp2059
s(I3
I19
tp2060
(F-83.268498611111113
F29.228108888888887
tp2061
s(I25
I34
tp2062
(F7.2881252777777776
F28.852744166666668
tp2063
s(I6
I12
tp2064
(F-102.07949611111111
F41.414964166666664
tp2065
s(I31
I28
tp2066
(F29.853246666666667
F40.630488888888891
tp2067
s(I18
I3
tp2068
(F-159.03730666666667
F56.010981666666666
tp2069
s(I40
I44
tp2070
g9
s(I21
I22
tp2071
(F-7.9149955555555556
F61.044447222222217
tp2072
s(I43
I9
tp2073
g9
s(I7
I39
tp2074
g9
s(I11
I32
tp2075
(F-34.632988888888889
F25.928465000000003
tp2076
s(I33
I19
tp2077
(F57.211985000000006
F56.281966666666669
tp2078
s(I44
I40
tp2079
g9
s(I9
I26
tp2080
(F-48.701746388888893
F37.000289166666668
tp2081
s(I12
I1
tp2082
g9
s(I15
I20
tp2083
(F-41.870248333333336
F60.038616111111111
tp2084
s(I37
I7
tp2085
(F123.75411777777778
F39.185540555555555
tp2086
s(I24
I4
tp2087
(F171.17580611111111
F64.241121388888885
tp2088
s(I27
I17
tp2089
(F37.281693611111109
F70.720431388888898
tp2090
s(I13
I30
tp2091
(F-30.733193888888888
F34.289625277777773
tp2092
s(I3
I24
tp2093
(F-70.615286111111104
F23.256063333333334
tp2094
s(I25
I43
tp2095
(F6.4198061111111118
F-6.4207430555555556
tp2096
s(I6
I7
tp2097
g9
s(I31
I5
tp2098
(F138.19216666666668
F55.479983888888889
tp2099
s(I40
I19
tp2100
(F77.686283611111108
F37.241457500000003
tp2101
s(I21
I31
tp2102
(F-4.8302808333333331
F37.653130833333329
tp2103
s(I43
I14
tp2104
(F105.03704333333333
F19.366749444444444
tp2105
s(I7
I28
tp2106
(F-51.249661111111109
F27.953795555555555
tp2107
s(I33
I20
tp2108
(F53.724948333333337
F54.629786666666668
tp2109
s(I16
I44
tp2110
(F-18.629976388888888
F-25.268469444444442
tp2111
s(I36
I39
tp2112
(F37.044334166666665
F-5.1509050000000007
tp2113
s(I44
I39
tp2114
g9
s(I9
I3
tp2115
g9
s(I34
I13
tp2116
(F89.027565277777782
F59.257223333333336
tp2117
s(I15
I29
tp2118
(F-25.497878611111112
F39.255345833333337
tp2119
s(I37
I0
tp2120
g9
s(I24
I11
tp2121
(F102.00173805555555
F86.091891666666669
tp2122
s(I27
I22
tp2123
(F23.02817972222222
F59.25163222222222
tp2124
s(I13
I23
tp2125
(F-41.792458055555556
F50.687171111111105
tp2126
s(I3
I1
tp2127
g9
s(I25
I44
tp2128
(F6.5744461111111105
F-13.962757499999999
tp2129
s(I28
I15
tp2130
(F55.722297222222224
F72.793053611111105
tp2131
s(I31
I2
tp2132
(F151.87064000000001
F36.746836666666667
tp2133
s(I1
I43
tp2134
g9
s(I40
I26
tp2135
(F60.546747499999995
F26.719289999999997
tp2136
s(I21
I24
tp2137
(F-6.8433555555555552
F55.979196111111115
tp2138
s(I4
I32
tp2139
(F-55.909152222222218
F6.8593674999999994
tp2140
s(I43
I7
tp2141
g9
s(I8
I35
tp2142
(F-40.905328055555557
F10.208773888888889
tp2143
s(I7
I21
tp2144
(F-66.246935555555552
F41.179934722222221
tp2145
s(I29
I40
tp2146
(F16.869249444444446
F5.4248572222222222
tp2147
s(I16
I35
tp2148
(F-18.350071666666668
F23.418555833333336
tp2149
s(I22
I9
tp2150
(F-169.48878944444442
F83.003210833333327
tp2151
s(I44
I30
tp2152
g9
s(I9
I4
tp2153
g9
s(I34
I4
tp2154
(F138.94606583333334
F38.902082777777778
tp2155
s(I15
I26
tp2156
(F-29.068435277777777
F46.679614166666667
tp2157
s(I37
I9
tp2158
(F113.67881194444445
F45.276431388888888
tp2159
s(I24
I18
tp2160
(F11.929249722222222
F71.184434166666676
tp2161
s(I13
I16
tp2162
(F-66.976335000000006
F62.692493888888883
tp2163
s(I0
I11
tp2164
g9
s(I38
I24
tp2165
(F58.713276666666673
F36.281949722222222
tp2166
s(I3
I6
tp2167
g9
s(I28
I6
tp2168
(F142.4405763888889
F66.359159166666657
tp2169
s(I31
I11
tp2170
(F98.522958611111108
F67.542604999999995
tp2171
s(I1
I44
tp2172
g9
s(I40
I1
tp2173
g9
s(I21
I33
tp2174
(F-4.5104813888888886
F32.034464166666666
tp2175
s(I8
I42
tp2176
g9
s(I7
I18
tp2177
(F-75.734045277777781
F44.699258888888885
tp2178
s(I29
I33
tp2179
(F19.361524166666669
F29.37978027777778
tp2180
s(I33
I38
tp2181
(F28.101654722222225
F7.8112649999999997
tp2182
s(I16
I26
tp2183
(F-25.449836944444446
F47.757394444444444
tp2184
s(I41
I38
tp2185
g9
s(I22
I0
tp2186
g9
s(I44
I21
tp2187
(F84.866028055555546
F16.381617500000001
tp2188
s(I9
I13
tp2189
(F-92.471940555555562
F53.090067777777783
tp2190
s(I34
I31
tp2191
(F35.627601944444443
F28.667076944444446
tp2192
s(I24
I25
tp2193
(F6.4250533333333335
F53.433768611111105
tp2194
s(I10
I20
tp2195
(F-60.385460555555554
F50.280273611111113
tp2196
s(I13
I9
tp2197
(F-113.07349666666666
F62.68154472222222
tp2198
s(I0
I2
tp2199
g9
s(I38
I19
tp2200
(F72.343635833333323
F43.701850555555559
tp2201
s(I3
I15
tp2202
(F-96.783002499999995
F29.217200555555554
tp2203
s(I28
I29
tp2204
(F18.923733611111111
F41.084722222222226
tp2205
s(I1
I37
tp2206
g9
s(I40
I8
tp2207
g9
s(I21
I42
tp2208
(F-3.8226047222222221
F-0.29558527777777777
tp2209
s(I4
I22
tp2210
(F-72.128352222222219
F30.241645000000002
tp2211
s(I26
I39
tp2212
(F9.1478194444444441
F11.917244722222222
tp2213
s(I7
I11
tp2214
(F-105.08123472222222
F44.482702500000002
tp2215
s(I16
I17
tp2216
(F-49.000857222222223
F67.494224722222228
tp2217
s(I22
I27
tp2218
(F-1.9197694444444442
F48.444184722222218
tp2219
s(I44
I12
tp2220
g9
s(I12
I37
tp2221
(F-28.458707222222223
F11.674925555555555
tp2222
s(I34
I22
tp2223
(F51.239186666666669
F49.044929444444442
tp2224
s(I10
I31
tp2225
(F-38.536480555555556
F26.90929222222222
tp2226
s(I13
I2
tp2227
g9
s(I0
I25
tp2228
g9
s(I38
I10
tp2229
(F109.82255138888888
F42.922266111111107
tp2230
s(I25
I7
tp2231
(F155.0153238888889
F74.748161388888889
tp2232
s(I28
I20
tp2233
(F32.384508611111109
F62.845276388888891
tp2234
s(I14
I35
tp2235
(F-23.925590555555555
F21.327012777777778
tp2236
s(I40
I15
tp2237
(F91.637889166666668
F38.913453055555557
tp2238
s(I4
I29
tp2239
(F-58.93118583333333
F16.275477222222221
tp2240
s(I7
I0
tp2241
g9
s(I16
I8
tp2242
(F-125.24327638888889
F69.284797222222224
tp2243
s(I19
I5
tp2244
(F-157.14623749999998
F66.389080277777779
tp2245
s(I41
I16
tp2246
(F90.347319722222224
F34.69060972222222
tp2247
s(I22
I18
tp2248
(F-4.0154372222222223
F71.497510277777778
tp2249
s(I44
I11
tp2250
g9
s(I34
I17
tp2251
(F68.598671111111102
F56.704059166666667
tp2252
s(I37
I36
tp2253
(F40.422280555555552
F6.344719722222222
tp2254
s(I10
I6
tp2255
(F-128.32459638888889
F44.914927777777777
tp2256
s(I35
I18
tp2257
(F67.481512222222221
F53.029093888888887
tp2258
s(I0
I16
tp2259
g9
s(I38
I13
tp2260
(F95.888791111111118
F46.168211944444444
tp2261
s(I25
I8
tp2262
(F148.29051222222222
F77.795968333333334
tp2263
s(I28
I19
tp2264
(F35.410185555555557
F65.047080555555553
tp2265
s(I14
I42
tp2266
(F-22.468059722222222
F-8.6933511111111113
tp2267
s(I4
I4
tp2268
g9
s(I26
I41
tp2269
(F8.9669972222222221
F3.6140525000000001
tp2270
s(I29
I12
tp2271
(F87.261984166666664
F73.188791944444446
tp2272
s(I16
I15
tp2273
(F-61.012065277777779
F70.715215555555559
tp2274
s(I19
I10
tp2275
(F-115.05715777777777
F80.112363333333334
tp2276
s(I41
I25
tp2277
(F65.463963888888898
F25.332686111111112
tp2278
s(I22
I21
tp2279
(F-2.8845358333333335
F63.794730000000001
tp2280
s(I5
I35
tp2281
(F-51.076635000000003
F-1.3288219444444445
tp2282
s(I44
I2
tp2283
g9
s(I9
I32
tp2284
(F-40.383537222222223
F22.170148055555558
tp2285
s(I34
I40
tp2286
(F30.826754722222223
F-4.1332377777777776
tp2287
s(I17
I32
tp2288
(F-16.94867
F33.014607222222224
tp2289
s(I23
I14
tp2290
(F9.3035961111111121
F82.099232222222213
tp2291
s(I10
I1
tp2292
g9
s(I35
I27
tp2293
(F43.928218611111106
F36.794089722222218
tp2294
s(I0
I23
tp2295
g9
s(I38
I4
tp2296
g9
s(I25
I17
tp2297
(F22.372528611111111
F73.027303055555549
tp2298
s(I1
I8
tp2299
g9
s(I39
I31
tp2300
(F50.255420555555553
F17.495500833333335
tp2301
s(I4
I3
tp2302
g9
s(I29
I5
tp2303
(F143.7827513888889
F60.729133333333337
tp2304
s(I16
I6
tp2305
(F-138.57271194444445
F64.112449166666664
tp2306
s(I19
I19
tp2307
(F-23.779354166666664
F67.307358055555554
tp2308
s(I2
I41
tp2309
g9
s(I41
I2
tp2310
g9
s(I22
I44
tp2311
(F-1.306301388888889
F-12.896480555555556
tp2312
s(I5
I44
tp2313
g9
s(I9
I41
tp2314
g9
s(I34
I35
tp2315
(F32.282519444444446
F16.869605277777779
tp2316
s(I17
I25
tp2317
(F-22.929061111111114
F51.138615000000001
tp2318
s(I42
I35
tp2319
g9
s(I23
I7
tp2320
(F174.58271888888888
F76.385770833333339
tp2321
s(I10
I8
tp2322
(F-118.00073333333333
F51.008148055555559
tp2323
s(I35
I0
tp2324
g9
s(I25
I26
tp2325
(F10.072795833333332
F50.558775833333328
tp2326
s(I11
I27
tp2327
(F-40.846081111111111
F38.60366638888889
tp2328
s(I1
I1
tp2329
g9
s(I39
I20
tp2330
(F71.938913333333332
F39.5256325
tp2331
s(I4
I10
tp2332
(F-117.01759111111112
F22.639360555555555
tp2333
s(I29
I30
tp2334
(F21.393481944444446
F37.629669722222225
tp2335
s(I19
I24
tp2336
(F-15.77816138888889
F55.104782499999999
tp2337
s(I2
I32
tp2338
g9
s(I41
I11
tp2339
(F111.10910916666666
F28.192525555555555
tp2340
s(I22
I39
tp2341
(F-1.3058772222222224
F12.81494138888889
tp2342
s(I5
I21
tp2343
(F-71.863739722222221
F35.071195277777782
tp2344
s(I27
I40
tp2345
(F11.632678611111112
F7.3049416666666662
tp2346
s(I30
I39
tp2347
(F19.692296666666667
F8.4237727777777778
tp2348
s(I17
I18
tp2349
(F-39.061545555555554
F67.175376666666665
tp2350
s(I42
I42
tp2351
g9
s(I23
I28
tp2352
(F1.8276977777777779
F45.832856111111113
tp2353
s(I32
I12
tp2354
(F92.112427499999995
F65.006884999999997
tp2355
s(I13
I38
tp2356
(F-25.350183055555558
F9.5449055555555553
tp2357
s(I35
I9
tp2358
(F112.64756055555556
F52.988653611111111
tp2359
s(I11
I16
tp2360
(F-73.173598333333345
F57.725744444444445
tp2361
s(I1
I26
tp2362
(F-74.78256694444444
F7.9959127777777779
tp2363
s(I39
I13
tp2364
(F97.705334722222219
F42.267294999999997
tp2365
s(I26
I2
tp2366
(F165.42380499999999
F51.822477500000005
tp2367
s(I29
I23
tp2368
(F30.128064444444444
F54.861769444444448
tp2369
s(I15
I36
tp2370
(F-20.676446666666667
F19.257534166666666
tp2371
s(I19
I33
tp2372
(F-10.497974999999999
F31.377092777777779
tp2373
s(I41
I12
tp2374
(F106.35068249999999
F31.03225611111111
tp2375
s(I5
I30
tp2376
(F-54.484051111111114
F17.146290555555556
tp2377
s(I27
I33
tp2378
(F13.471227222222222
F30.848357499999999
tp2379
s(I17
I11
tp2380
(F-97.140853055555567
F75.738058888888887
tp2381
s(I20
I0
tp2382
g9
s(I42
I21
tp2383
(F77.66796305555556
F27.48444277777778
tp2384
s(I23
I21
tp2385
(F2.8845358333333335
F63.794730000000001
tp2386
s(I32
I3
tp2387
(F145.6452447222222
F41.565067777777777
tp2388
s(I35
I14
tp2389
(F85.554991111111107
F56.135439444444444
tp2390
s(I18
I42
tp2391
(F-11.545200833333332
F-2.1503530555555557
tp2392
s(I38
I41
tp2393
g9
s(I11
I9
tp2394
(F-112.51784055555555
F56.406705277777775
tp2395
s(I14
I6
tp2396
(F-133.01439055555556
F58.891058055555554
tp2397
s(I36
I23
tp2398
(F55.066300277777778
F42.956418611111111
tp2399
s(I1
I19
tp2400
(F-90.569559999999996
F17.137031666666665
tp2401
s(I39
I10
tp2402
(F111.25006166666667
F38.109562777777782
tp2403
s(I26
I13
tp2404
(F62.531698333333331
F79.902715833333346
tp2405
s(I29
I16
tp2406
(F54.484191944444447
F69.211467222222225
tp2407
s(I19
I38
tp2408
(F-9.293619722222223
F15.585944722222223
tp2409
s(I5
I7
tp2410
g9
s(I27
I38
tp2411
(F11.950247777777777
F15.007238055555556
tp2412
s(I30
I17
tp2413
(F53.841856111111113
F65.615871388888877
tp2414
s(I17
I12
tp2415
(F-85.125723333333326
F75.798564444444438
tp2416
s(I20
I15
tp2417
(F-31.765607500000002
F77.815575833333327
tp2418
s(I42
I28
tp2419
(F63.656953055555554
F14.738629444444443
tp2420
s(I23
I18
tp2421
(F4.0154372222222223
F71.497510277777778
tp2422
s(I10
I37
tp2423
(F-34.091731111111116
F7.6309038888888896
tp2424
s(I32
I26
tp2425
(F35.995361388888888
F44.07685138888889
tp2426
s(I18
I37
tp2427
(F-12.173386944444443
F18.477505277777777
tp2428
s(I38
I32
tp2429
(F46.215770277777779
F17.406790833333332
tp2430
s(I8
I19
tp2431
(F-69.603993333333321
F46.563559444444444
tp2432
s(I11
I14
tp2433
(F-83.431147222222222
F59.036716388888884
tp2434
s(I14
I9
tp2435
(F-113.85122027777777
F65.603228611111106
tp2436
s(I36
I30
tp2437
(F42.608586666666667
F27.590437222222221
tp2438
s(I1
I20
tp2439
(F-87.584381944444445
F16.980258333333332
tp2440
s(I39
I3
tp2441
g9
s(I26
I20
tp2442
(F21.517163888888888
F64.905568333333335
tp2443
s(I15
I42
tp2444
(F-19.599250555555553
F-6.4236030555555557
tp2445
s(I2
I13
tp2446
g9
s(I24
I34
tp2447
(F4.3764166666666666
F29.11496166666667
tp2448
s(I5
I0
tp2449
g9
s(I30
I24
tp2450
(F32.266736666666667
F51.36318555555556
tp2451
s(I17
I5
tp2452
(F-147.52334305555556
F62.919548888888883
tp2453
s(I20
I22
tp2454
(F-13.098326388888889
F60.640300277777776
tp2455
s(I42
I7
tp2456
g9
s(I23
I43
tp2457
(F1.2796486111111109
F-5.6892469444444451
tp2458
s(I6
I33
tp2459
(F-48.388292777777778
F11.235440555555554
tp2460
s(I10
I44
tp2461
g9
s(I32
I17
tp2462
(F61.972358611111112
F61.424329722222218
tp2463
s(I18
I28
tp2464
(F-16.251505555555557
F44.384842777777777
tp2465
s(I43
I44
tp2466
g9
s(I8
I26
tp2467
(F-51.694843055555552
F34.790818611111106
tp2468
s(I11
I7
tp2469
(F-123.60102055555555
F52.146539722222222
tp2470
s(I14
I16
tp2471
(F-63.342419722222225
F64.994183055555553
tp2472
s(I36
I5
tp2473
(F134.02658027777778
F33.439092222222222
tp2474
s(I26
I31
tp2475
(F11.228976944444444
F36.981950000000005
tp2476
s(I12
I30
tp2477
(F-33.75508
F32.873988888888888
tp2478
s(I2
I4
tp2479
g9
s(I24
I41
tp2480
(F3.8343761111111112
F4.4971027777777781
tp2481
s(I5
I9
tp2482
(F-118.70966027777779
F27.526662222222221
tp2483
s(I30
I3
tp2484
(F149.45901583333332
F49.006880555555554
tp2485
s(I20
I29
tp2486
(F-8.7056991666666654
F42.769690555555556
tp2487
s(I42
I14
tp2488
(F100.73101361111111
F28.104171944444445
tp2489
s(I23
I32
tp2490
(F1.5546913888888889
F35.008529444444441
tp2491
s(I6
I24
tp2492
(F-61.629053611111111
F33.546474444444442
tp2493
s(I32
I40
tp2494
(F24.977709166666664
F0.82158249999999999
tp2495
s(I31
I32
tp2496
(F25.909738611111109
F30.166393333333332
tp2497
s(I35
I37
tp2498
(F34.091731111111116
F7.6309038888888896
tp2499
s(I18
I23
tp2500
(F-21.450569999999999
F56.845486666666666
tp2501
s(I43
I37
tp2502
g9
s(I8
I1
tp2503
g9
s(I33
I15
tp2504
(F75.47197972222223
F61.178584722222219
tp2505
s(I14
I27
tp2506
(F-31.141547222222222
F43.072207500000005
tp2507
s(I36
I12
tp2508
(F97.524455000000003
F52.755941666666665
tp2509
s(I12
I21
tp2510
(F-50.607390277777782
F52.853673888888892
tp2511
s(I2
I31
tp2512
(F-65.794884166666662
F-2.6459475000000001
tp2513
s(I27
I13
tp2514
(F69.087678888888888
F77.637064166666676
tp2515
s(I30
I10
tp2516
(F106.73953055555556
F69.629848055555556
tp2517
s(I0
I41
tp2518
g9
s(I20
I36
tp2519
(F-6.9181647222222225
F22.712387499999998
tp2520
s(I3
I36
tp2521
g9
s(I42
I9
tp2522
g9
s(I6
I19
tp2523
(F-75.021431388888885
F40.612747500000005
tp2524
s(I28
I36
tp2525
(F15.187443333333334
F21.080893333333332
tp2526
s(I31
I41
tp2527
(F22.217173888888887
F-2.4317772222222223
tp2528
s(I35
I42
tp2529
g9
s(I18
I14
tp2530
(F-58.02477833333333
F76.362866666666662
tp2531
s(I21
I3
tp2532
(F-172.45529916666666
F59.48629722222222
tp2533
s(I43
I26
tp2534
(F70.337373611111104
F14.641256666666667
tp2535
s(I8
I8
tp2536
(F-118.66589472222223
F42.737831666666665
tp2537
s(I33
I0
tp2538
g9
s(I36
I11
tp2539
(F102.67271166666667
F52.049425555555551
tp2540
s(I12
I12
tp2541
(F-93.494500833333333
F62.125529999999998
tp2542
s(I15
I1
tp2543
g9
s(I37
I20
tp2544
(F66.363297222222215
F45.294695833333328
tp2545
s(I2
I22
tp2546
(F-78.429486944444449
F21.563592222222223
tp2547
s(I27
I2
tp2548
(F161.8153575
F50.143966944444443
tp2549
s(I30
I13
tp2550
(F80.490878611111114
F70.2463075
tp2551
s(I0
I32
tp2552
g9
s(I20
I35
tp2553
(F-7.0914786111111106
F25.839154722222222
tp2554
s(I6
I10
tp2555
(F-111.25006166666667
F38.109562777777782
tp2556
s(I28
I35
tp2557
(F15.549452499999999
F24.23521638888889
tp2558
s(I32
I38
tp2559
(F25.350183055555558
F9.5449055555555553
tp2560
s(I31
I22
tp2561
(F40.420242500000001
F54.363508611111115
tp2562
s(I18
I9
tp2563
(F-123.488005
F76.124805277777767
tp2564
s(I40
I38
tp2565
g9
s(I21
I12
tp2566
(F-61.092500277777781
F85.632379444444439
tp2567
s(I43
I19
tp2568
(F86.475028333333341
F24.099447777777776
tp2569
s(I8
I15
tp2570
(F-85.085673888888877
F49.697562777777776
tp2571
s(I7
I41
tp2572
g9
s(I11
I42
tp2573
g9
s(I33
I25
tp2574
(F41.100634166666666
F44.774450555555553
tp2575
s(I39
I39
tp2576
g9
s(I9
I16
tp2577
(F-78.431003611111109
F52.23368277777778
tp2578
s(I12
I11
tp2579
(F-99.934723333333338
F61.720647500000005
tp2580
s(I15
I14
tp2581
(F-72.556030277777779
F69.549248055555552
tp2582
s(I37
I29
tp2583
(F46.847228888888893
F27.948876111111112
tp2584
s(I2
I17
tp2585
(F-92.8759086111111
F24.180431666666667
tp2586
s(I27
I27
tp2587
(F17.033915833333335
F46.941953055555551
tp2588
s(I0
I39
tp2589
g9
s(I20
I42
tp2590
(F-6.3798419444444443
F-0.69534416666666665
tp2591
s(I3
I18
tp2592
(F-86.347935833333324
F29.723269444444444
tp2593
s(I25
I33
tp2594
(F7.5098036111111108
F31.77197
tp2595
s(I6
I13
tp2596
(F-97.705334722222219
F42.267294999999997
tp2597
s(I31
I31
tp2598
(F26.739914166666669
F32.90042861111111
tp2599
s(I18
I0
tp2600
g9
s(I21
I21
tp2601
(F-8.6149194444444444
F63.572872777777782
tp2602
s(I43
I8
tp2603
g9
s(I7
I38
tp2604
(F-44.161189166666666
F-8.5764505555555548
tp2605
s(I11
I35
tp2606
(F-32.282519444444446
F16.869605277777779
tp2607
s(I33
I18
tp2608
(F61.10539416666667
F57.790088888888889
tp2609
s(I44
I41
tp2610
g9
s(I9
I25
tp2611
(F-50.628369166666666
F39.090707222222221
tp2612
s(I12
I2
tp2613
g9
s(I15
I23
tp2614
(F-34.198183055555553
F53.625578333333337
tp2615
s(I37
I6
tp2616
(F129.26356027777777
F33.658646111111111
tp2617
s(I24
I5
tp2618
(F169.53916416666667
F68.45811888888889
tp2619
s(I27
I16
tp2620
(F42.54284222222222
F72.794715555555555
tp2621
s(I13
I29
tp2622
(F-31.844366944444442
F36.846141666666668
tp2623
s(I3
I27
tp2624
(F-65.130813333333322
F17.206198888888888
tp2625
s(I25
I42
tp2626
(F6.3798419444444443
F-0.69534416666666665
tp2627
s(I6
I4
tp2628
g9
s(I31
I4
tp2629
(F142.88317888888889
F51.241575833333336
tp2630
s(I40
I20
tp2631
(F74.678120277777779
F36.250304166666666
tp2632
s(I21
I30
tp2633
(F-5.0203452777777775
F40.37489166666667
tp2634
s(I43
I1
tp2635
g9
s(I7
I31
tp2636
(F-47.26421777777778
F20.295958055555559
tp2637
s(I33
I43
tp2638
g9
s(I36
I32
tp2639
(F40.383537222222223
F22.170148055555558
tp2640
s(I44
I32
tp2641
g9
s(I9
I2
tp2642
g9
s(I34
I10
tp2643
(F106.68617194444445
F57.752395277777779
tp2644
s(I15
I28
tp2645
(F-26.554298333333335
F41.786254999999997
tp2646
s(I37
I15
tp2647
(F85.085673888888877
F49.697562777777776
tp2648
s(I24
I12
tp2649
(F61.092500277777781
F85.632379444444439
tp2650
s(I13
I22
tp2651
(F-44.220828888888889
F52.742294722222226
tp2652
s(I3
I0
tp2653
g9
s(I28
I8
tp2654
(F128.70074416666665
F71.746565277777776
tp2655
s(I31
I13
tp2656
(F83.004396111111106
F67.628450555555546
tp2657
s(I1
I42
tp2658
g9
s(I40
I27
tp2659
(F58.794535277777776
F24.584767222222222
tp2660
s(I21
I39
tp2661
(F-3.9180547222222222
F12.666739166666666
tp2662
s(I4
I33
tp2663
(F-55.40694388888889
F2.8002363888888886
tp2664
s(I43
I6
tp2665
g9
s(I8
I36
tp2666
(F-40.422280555555552
F6.344719722222222
tp2667
s(I7
I20
tp2668
(F-69.182495000000003
F42.523301388888889
tp2669
s(I29
I39
tp2670
(F17.035812500000002
F9.573885555555556
tp2671
s(I33
I44
tp2672
g9
s(I16
I36
tp2673
(F-17.933651944444446
F20.247171666666667
tp2674
s(I22
I14
tp2675
(F-9.3035961111111121
F82.099232222222213
tp2676
s(I44
I31
tp2677
g9
s(I9
I11
tp2678
(F-102.67271166666667
F52.049425555555551
tp2679
s(I34
I5
tp2680
(F133.83066666666667
F44.88626277777778
tp2681
s(I37
I8
tp2682
(F118.66589472222223
F42.737831666666665
tp2683
s(I24
I19
tp2684
(F10.546690833333333
F68.640066111111125
tp2685
s(I13
I15
tp2686
(F-72.538357222222217
F63.728898611111113
tp2687
s(I0
I12
tp2688
g9
s(I38
I25
tp2689
(F56.5920725
F34.386937777777774
tp2690
s(I3
I9
tp2691
g9
s(I28
I7
tp2692
(F136.25469472222221
F69.297085833333327
tp2693
s(I31
I10
tp2694
(F106.34238416666666
F66.816100277777778
tp2695
s(I1
I35
tp2696
g9
s(I40
I2
tp2697
g9
s(I21
I32
tp2698
(F-4.6611347222222221
F34.876427499999998
tp2699
s(I4
I40
tp2700
g9
s(I8
I43
tp2701
g9
s(I7
I13
tp2702
(F-95.888791111111118
F46.168211944444444
tp2703
s(I29
I32
tp2704
(F19.964028888888887
F32.208485000000003
tp2705
s(I33
I37
tp2706
(F28.458707222222223
F11.674925555555555
tp2707
s(I16
I27
tp2708
(F-24.249499444444446
F45.300583611111108
tp2709
s(I41
I37
tp2710
g9
s(I22
I1
tp2711
(F-178.12976444444445
F47.085055000000004
tp2712
s(I44
I22
tp2713
(F82.385694166666667
F15.408470833333334
tp2714
s(I9
I12
tp2715
(F-97.524455000000003
F52.755941666666665
tp2716
s(I34
I28
tp2717
(F39.333736111111115
F36.256548055555555
tp2718
s(I24
I26
tp2719
(F6.0644277777777775
F50.873550555555553
tp2720
s(I10
I21
tp2721
(F-57.299569444444444
F48.685523333333329
tp2722
s(I13
I8
tp2723
(F-119.54809833333333
F60.964905277777781
tp2724
s(I0
I3
tp2725
g9
s(I38
I16
tp2726
(F83.193769722222228
F46.070064444444448
tp2727
s(I3
I14
tp2728
(F-100.73101361111111
F28.104171944444445
tp2729
s(I28
I30
tp2730
(F18.189085555555558
F38.455686666666672
tp2731
s(I1
I36
tp2732
g9
s(I40
I9
tp2733
(F118.70966027777779
F27.526662222222221
tp2734
s(I21
I41
tp2735
(F-3.8343761111111112
F4.4971027777777781
tp2736
s(I4
I23
tp2737
(F-69.732979444444453
F28.77856361111111
tp2738
s(I26
I36
tp2739
(F9.6797236111111111
F22.308711666666667
tp2740
s(I7
I10
tp2741
(F-109.82255138888888
F42.922266111111107
tp2742
s(I16
I18
tp2743
(F-44.408668333333331
F65.617062222222216
tp2744
s(I22
I24
tp2745
(F-2.286731111111111
F56.155389999999997
tp2746
s(I44
I13
tp2747
g9
s(I12
I38
tp2748
(F-28.101654722222225
F7.8112649999999997
tp2749
s(I34
I23
tp2750
(F48.710340277777782
F47.138621111111114
tp2751
s(I10
I28
tp2752
(F-42.369443055555557
F34.474482222222221
tp2753
s(I13
I1
tp2754
g9
s(I0
I26
tp2755
g9
s(I38
I11
tp2756
(F105.08123472222222
F44.482702500000002
tp2757
s(I25
I6
tp2758
(F159.65950138888888
F71.35802249999999
tp2759
s(I28
I21
tp2760
(F29.850713611111111
F60.586640277777782
tp2761
s(I14
I32
tp2762
(F-25.909738611111109
F30.166393333333332
tp2763
s(I4
I30
tp2764
(F-57.721887500000001
F13.466105833333332
tp2765
s(I7
I3
tp2766
g9
s(I16
I9
tp2767
(F-116.90700694444445
F71.09741527777777
tp2768
s(I19
I4
tp2769
(F-160.46058249999999
F62.283228055555554
tp2770
s(I41
I23
tp2771
(F69.732979444444453
F28.77856361111111
tp2772
s(I22
I19
tp2773
(F-3.5413855555555553
F68.914511666666669
tp2774
s(I44
I4
tp2775
g9
s(I37
I35
tp2776
(F40.905328055555557
F10.208773888888889
tp2777
s(I10
I7
tp2778
(F-123.21778027777778
F48.389133888888885
tp2779
s(I35
I21
tp2780
(F57.299569444444444
F48.685523333333329
tp2781
s(I0
I17
tp2782
g9
s(I38
I2
tp2783
g9
s(I25
I15
tp2784
(F31.765607500000002
F77.815575833333327
tp2785
s(I14
I43
tp2786
(F-23.437022777777777
F-18.229907777777775
tp2787
s(I4
I5
tp2788
g9
s(I29
I11
tp2789
(F97.470088888888895
F73.060502499999998
tp2790
s(I16
I0
tp2791
g9
s(I19
I13
tp2792
(F-62.531698333333331
F79.902715833333346
tp2793
s(I41
I24
tp2794
(F67.512859444444445
F27.141299166666666
tp2795
s(I22
I42
tp2796
(F-1.2733461111111111
F-0.098135555555555545
tp2797
s(I5
I34
tp2798
(F-51.191151388888883
F3.5119822222222221
tp2799
s(I44
I3
tp2800
g9
s(I9
I39
tp2801
(F-37.044334166666665
F-5.1509050000000007
tp2802
s(I34
I41
tp2803
(F31.401619722222222
F-11.199796944444445
tp2804
s(I17
I39
tp2805
(F-14.396531666666666
F10.529618888888889
tp2806
s(I37
I44
tp2807
g9
s(I23
I9
tp2808
(F169.48878944444442
F83.003210833333327
tp2809
s(I10
I14
tp2810
(F-85.554991111111107
F56.135439444444444
tp2811
s(I35
I26
tp2812
(F45.648773333333331
F39.019942499999999
tp2813
s(I38
I5
tp2814
g9
s(I25
I16
tp2815
(F26.255009444444443
F75.453006111111108
tp2816
s(I1
I15
tp2817
g9
s(I39
I30
tp2818
(F51.422150277777774
F20.272989722222221
tp2819
s(I4
I12
tp2820
(F-106.35068249999999
F31.03225611111111
tp2821
s(I29
I4
tp2822
(F148.25138611111112
F56.700425833333334
tp2823
s(I16
I7
tp2824
(F-132.44294583333334
F66.953688333333332
tp2825
s(I19
I18
tp2826
(F-26.611666944444448
F69.679705555555557
tp2827
s(I2
I38
tp2828
g9
s(I41
I1
tp2829
g9
s(I5
I43
tp2830
g9
s(I9
I40
tp2831
(F-38.027735
F-13.104485833333333
tp2832
s(I34
I32
tp2833
(F34.632988888888889
F25.928465000000003
tp2834
s(I17
I24
tp2835
(F-24.298610277777779
F53.555499166666664
tp2836
s(I42
I32
tp2837
(F60.091589444444445
F1.0901594444444445
tp2838
s(I23
I6
tp2839
(F175.69689888888888
F72.772460555555554
tp2840
s(I10
I9
tp2841
(F-112.64756055555556
F52.988653611111111
tp2842
s(I13
I44
tp2843
g9
s(I35
I3
tp2844
g9
s(I25
I25
tp2845
(F10.665011666666667
F53.102547222222221
tp2846
s(I11
I26
tp2847
(F-42.520691388888885
F40.865975277777778
tp2848
s(I1
I0
tp2849
g9
s(I39
I23
tp2850
(F63.916276666666668
F35.264956111111111
tp2851
s(I4
I11
tp2852
(F-111.10910916666666
F28.192525555555555
tp2853
s(I29
I29
tp2854
(F22.238220555555557
F40.241281944444445
tp2855
s(I19
I27
tp2856
(F-13.322587499999999
F47.541458333333331
tp2857
s(I2
I33
tp2858
g9
s(I41
I10
tp2859
(F117.01759111111112
F22.639360555555555
tp2860
s(I22
I36
tp2861
(F-1.3844980555555555
F23.113446944444444
tp2862
s(I5
I20
tp2863
(F-74.678120277777779
F36.250304166666666
tp2864
s(I27
I43
tp2865
(F11.659216111111112
F-8.2477616666666655
tp2866
s(I30
I36
tp2867
(F20.676446666666667
F19.257534166666666
tp2868
s(I17
I17
tp2869
(F-43.51251222222222
F69.204566944444451
tp2870
s(I42
I43
tp2871
g9
s(I23
I31
tp2872
(F1.6113116666666667
F37.787151388888887
tp2873
s(I32
I13
tp2874
(F85.204226944444443
F64.931240277777789
tp2875
s(I13
I37
tp2876
(F-25.711550555555554
F13.289897777777778
tp2877
s(I35
I8
tp2878
(F118.00073333333333
F51.008148055555559
tp2879
s(I11
I19
tp2880
(F-60.604321111111112
F54.081024166666673
tp2881
s(I1
I25
tp2882
(F-76.310112777777775
F10.423996944444443
tp2883
s(I39
I12
tp2884
(F102.07949611111111
F41.414964166666664
tp2885
s(I26
I3
tp2886
(F163.14822555555554
F57.548227222222224
tp2887
s(I29
I22
tp2888
(F32.168514166666661
F57.138861388888891
tp2889
s(I15
I39
tp2890
(F-19.692296666666667
F8.4237727777777778
tp2891
s(I19
I32
tp2892
(F-10.842489444444444
F34.214264166666666
tp2893
s(I5
I29
tp2894
(F-55.763944166666668
F19.815026388888889
tp2895
s(I27
I32
tp2896
(F13.9071175
F33.682394444444441
tp2897
s(I17
I10
tp2898
(F-108.91369916666667
F75.025105277777783
tp2899
s(I20
I1
tp2900
(F-170.86516972222222
F45.582946944444451
tp2901
s(I42
I18
tp2902
(F86.347935833333324
F29.723269444444444
tp2903
s(I23
I20
tp2904
(F3.1754355555555556
F66.348617222222217
tp2905
s(I32
I4
tp2906
(F140.9905775
F47.872587222222222
tp2907
s(I18
I43
tp2908
(F-11.659216111111112
F-8.2477616666666655
tp2909
s(I11
I8
tp2910
(F-118.17244277777779
F54.563550833333331
tp2911
s(I14
I7
tp2912
(F-127.25059
F61.666839166666662
tp2913
s(I36
I16
tp2914
(F78.431003611111109
F52.23368277777778
tp2915
s(I1
I18
tp2916
(F-93.885921944444448
F16.712958611111109
tp2917
s(I39
I5
tp2918
g9
s(I26
I10
tp2919
(F115.05715777777777
F80.112363333333334
tp2920
s(I15
I44
tp2921
g9
s(I19
I41
tp2922
(F-8.9669972222222221
F3.6140525000000001
tp2923
s(I5
I6
tp2924
g9
s(I30
I22
tp2925
(F36.405677499999996
F55.830621111111114
tp2926
s(I17
I3
tp2927
(F-155.36720694444446
F54.092568888888891
tp2928
s(I20
I8
tp2929
(F-148.29051222222222
F77.795968333333334
tp2930
s(I42
I29
tp2931
(F62.375631111111112
F11.993285277777776
tp2932
s(I10
I34
tp2933
(F-35.790917777777778
F18.204938333333331
tp2934
s(I32
I27
tp2935
(F34.45890416666667
F41.736040277777782
tp2936
s(I18
I34
tp2937
(F-13.083136111111111
F27.928804166666669
tp2938
s(I38
I33
tp2939
(F45.309843333333333
F14.301328055555556
tp2940
s(I8
I20
tp2941
(F-66.363297222222215
F45.294695833333328
tp2942
s(I11
I1
tp2943
g9
s(I14
I14
tp2944
(F-75.813832222222217
F67.066613888888881
tp2945
s(I36
I31
tp2946
(F41.433826666666661
F24.949421666666666
tp2947
s(I39
I2
tp2948
g9
s(I26
I21
tp2949
(F19.674807777777779
F62.482070555555559
tp2950
s(I2
I10
tp2951
g9
s(I24
I35
tp2952
(F4.2574797222222225
F26.103003333333334
tp2953
s(I5
I15
tp2954
(F-91.637889166666668
F38.913453055555557
tp2955
s(I30
I25
tp2956
(F30.568468611111111
F49.047313888888887
tp2957
s(I17
I4
tp2958
(F-151.75689583333335
F58.898044999999996
tp2959
s(I20
I23
tp2960
(F-12.151473611111111
F58.139594166666669
tp2961
s(I42
I4
tp2962
g9
s(I23
I42
tp2963
(F1.2733461111111111
F-0.098135555555555545
tp2964
s(I6
I38
tp2965
g9
s(I32
I18
tp2966
(F57.510935000000003
F59.962718055555555
tp2967
s(I18
I29
tp2968
(F-15.558980277777778
F41.786914444444442
tp2969
s(I8
I27
tp2970
(F-49.923494722222223
F32.626102777777781
tp2971
s(I11
I6
tp2972
(F-128.79885472222222
F49.018390277777776
tp2973
s(I14
I17
tp2974
(F-58.134789722222223
F63.588513333333339
tp2975
s(I36
I6
tp2976
(F128.38064666666668
F40.057355277777773
tp2977
s(I26
I28
tp2978
(F12.700124444444445
F44.963384444444451
tp2979
s(I12
I31
tp2980
(F-32.696318055555551
F30.242711944444444
tp2981
s(I2
I5
tp2982
g9
s(I24
I42
tp2983
(F3.8226047222222221
F-0.29558527777777777
tp2984
s(I5
I8
tp2985
g9
s(I30
I0
tp2986
g9
s(I20
I30
tp2987
(F-8.3523830555555545
F40.101224166666668
tp2988
s(I42
I15
tp2989
(F96.783002499999995
F29.217200555555554
tp2990
s(I23
I35
tp2991
(F1.4196002777777779
F26.234580277777777
tp2992
s(I6
I25
tp2993
(F-59.521879444444444
F31.68926611111111
tp2994
s(I32
I41
tp2995
(F25.062033888888891
F-4.6211708333333341
tp2996
s(I31
I35
tp2997
(F23.925590555555555
F21.327012777777778
tp2998
s(I35
I36
tp2999
(F34.529951944444441
F11.450210833333333
tp3000
s(I18
I20
tp3001
(F-27.119133055555555
F63.975950833333336
tp3002
s(I43
I36
tp3003
g9
s(I8
I2
tp3004
g9
s(I33
I14
tp3005
(F81.147648055555564
F61.816787222222224
tp3006
s(I14
I24
tp3007
(F-36.025425277777778
F50.034838888888885
tp3008
s(I36
I13
tp3009
(F92.471940555555562
F53.090067777777783
tp3010
s(I12
I22
tp3011
(F-47.821263333333334
F50.9695125
tp3012
s(I2
I28
tp3013
(F-67.487935000000007
F9.5069388888888895
tp3014
s(I27
I12
tp3015
(F82.41950277777778
F78.359908333333323
tp3016
s(I30
I11
tp3017
(F97.943537500000005
F70.332404444444435
tp3018
s(I0
I42
tp3019
g9
s(I20
I37
tp3020
(F-6.7671413888888887
F19.448326388888891
tp3021
s(I3
I39
tp3022
g9
s(I6
I16
tp3023
(F-85.513984444444446
F42.643173611111109
tp3024
s(I28
I37
tp3025
(F14.874030277777779
F17.772357222222222
tp3026
s(I32
I32
tp3027
(F28.840534999999999
F28.919331388888889
tp3028
s(I31
I40
tp3029
(F22.221038333333333
F2.6451677777777776
tp3030
s(I18
I15
tp3031
(F-49.304354166666663
F74.705037222222231
tp3032
s(I40
I32
tp3033
(F52.423624166666663
F11.076332777777777
tp3034
s(I21
I2
tp3035
(F-173.50608277777778
F53.881252777777782
tp3036
s(I43
I29
tp3037
(F66.446663333333333
F6.3235644444444441
tp3038
s(I8
I9
tp3039
(F-113.67881194444445
F45.276431388888888
tp3040
s(I33
I7
tp3041
(F124.3773386111111
F55.568143888888891
tp3042
s(I39
I41
tp3043
g9
s(I12
I13
tp3044
(F-87.18869222222223
F62.145426111111114
tp3045
s(I15
I0
tp3046
g9
s(I37
I19
tp3047
(F69.603993333333321
F46.563559444444444
tp3048
s(I2
I23
tp3049
(F-76.126759722222218
F20.20080861111111
tp3050
s(I27
I5
tp3051
(F151.96806388888888
F64.813578888888884
tp3052
s(I0
I33
tp3053
g9
s(I20
I44
tp3054
(F-6.5744461111111105
F-13.962757499999999
tp3055
s(I3
I44
tp3056
g9
s(I6
I11
tp3057
(F-106.59001222222221
F40.076437222222225
tp3058
s(I32
I39
tp3059
(F25.095789722222221
F5.4405244444444447
tp3060
s(I31
I17
tp3061
(F58.134789722222223
F63.588513333333339
tp3062
s(I18
I6
tp3063
(F-147.18762972222223
F68.341183333333333
tp3064
s(I40
I39
tp3065
g9
s(I21
I11
tp3066
(F-102.00173805555555
F86.091891666666669
tp3067
s(I43
I18
tp3068
(F89.56063555555555
F24.3369225
tp3069
s(I7
I40
tp3070
g9
s(I33
I24
tp3071
(F43.099845000000002
F46.922394444444443
tp3072
s(I39
I38
tp3073
g9
s(I9
I23
tp3074
(F-55.066300277777778
F42.956418611111111
tp3075
s(I12
I4
tp3076
(F-139.64189249999998
F43.891771111111112
tp3077
s(I15
I9
tp3078
(F-115.0783961111111
F68.405962222222229
tp3079
s(I37
I28
tp3080
(F48.310947222222218
F30.347013611111109
tp3081
s(I27
I26
tp3082
(F17.922013333333336
F49.463158611111112
tp3083
s(I20
I43
tp3084
(F-6.4198061111111118
F-6.4207430555555556
tp3085
s(I3
I21
tp3086
(F-77.66796305555556
F27.48444277777778
tp3087
s(I25
I32
tp3088
(F7.7588747222222221
F34.611900833333337
tp3089
s(I6
I2
tp3090
g9
s(I31
I30
tp3091
(F27.666577777777775
F35.550290277777776
tp3092
s(I18
I1
tp3093
(F-164.46022944444442
F41.709559722222224
tp3094
s(I21
I20
tp3095
(F-9.4725613888888898
F66.10366194444444
tp3096
s(I43
I11
tp3097
g9
s(I7
I33
tp3098
(F-45.309843333333333
F14.301328055555556
tp3099
s(I11
I34
tp3100
(F-32.963088055555559
F20.053610555555558
tp3101
s(I33
I17
tp3102
(F65.436638055555562
F59.129376388888886
tp3103
s(I44
I42
tp3104
g9
s(I9
I24
tp3105
(F-52.744366388888892
F41.077340555555558
tp3106
s(I12
I3
tp3107
(F-144.83348444444445
F35.879737777777777
tp3108
s(I15
I22
tp3109
(F-36.405677499999996
F55.830621111111114
tp3110
s(I37
I5
tp3111
g9
s(I24
I6
tp3112
(F167.33998472222223
F72.290902500000001
tp3113
s(I27
I19
tp3114
(F29.817721666666667
F66.283067500000001
tp3115
s(I13
I28
tp3116
(F-33.081251666666667
F39.326722500000002
tp3117
s(I3
I26
tp3118
(F-66.784958055555549
F19.434698611111113
tp3119
s(I25
I41
tp3120
(F6.3961875000000008
F4.1471363888888897
tp3121
s(I6
I5
tp3122
g9
s(I31
I7
tp3123
(F127.25059
F61.666839166666662
tp3124
s(I40
I21
tp3125
(F71.863739722222221
F35.071195277777782
tp3126
s(I21
I29
tp3127
(F-5.2343863888888889
F43.050543888888889
tp3128
s(I43
I0
tp3129
g9
s(I7
I30
tp3130
(F-48.451675833333333
F23.002704444444444
tp3131
s(I33
I42
tp3132
(F29.090926666666665
F-16.294872222222224
tp3133
s(I36
I33
tp3134
(F39.454448333333339
F19.232246666666665
tp3135
s(I44
I33
tp3136
g9
s(I9
I1
tp3137
g9
s(I34
I11
tp3138
(F100.75862222222223
F58.650574444444445
tp3139
s(I15
I31
tp3140
(F-23.70785861111111
F34.000150555555557
tp3141
s(I37
I14
tp3142
(F89.534050555555552
F49.874368611111109
tp3143
s(I24
I13
tp3144
(F37.665626111111109
F83.736481111111118
tp3145
s(I13
I21
tp3146
(F-46.95973027777778
F54.711429444444448
tp3147
s(I3
I3
tp3148
g9
s(I28
I9
tp3149
(F119.57904472222222
F73.67559833333334
tp3150
s(I31
I12
tp3151
(F90.652062777777786
F67.802385277777773
tp3152
s(I1
I41
tp3153
g9
s(I40
I28
tp3154
(F57.20100305555556
F22.287671388888892
tp3155
s(I21
I38
tp3156
(F-3.9828650000000003
F16.29889166666667
tp3157
s(I4
I34
tp3158
(F-55.369890277777777
F-2.2164852777777782
tp3159
s(I8
I37
tp3160
(F-40.15230583333333
F1.9599169444444444
tp3161
s(I7
I23
tp3162
(F-61.022223055555557
F38.049862222222224
tp3163
s(I29
I38
tp3164
(F17.273976111111111
F13.373610833333334
tp3165
s(I33
I35
tp3166
(F29.488675555555556
F18.55388388888889
tp3167
s(I16
I37
tp3168
(F-17.574618611111109
F16.912190555555554
tp3169
s(I36
I40
tp3170
(F38.027735
F-13.104485833333333
tp3171
s(I41
I35
tp3172
(F56.559532222222217
F-9.8242238888888895
tp3173
s(I22
I15
tp3174
(F-6.9387725000000007
F79.400330833333342
tp3175
s(I44
I24
tp3176
(F78.102578611111099
F12.43705888888889
tp3177
s(I9
I10
tp3178
(F-107.85778944444444
F50.922507499999995
tp3179
s(I34
I2
tp3180
g9
s(I24
I20
tp3181
(F9.4725613888888898
F66.10366194444444
tp3182
s(I13
I14
tp3183
(F-78.63769805555556
F64.490371111111116
tp3184
s(I0
I13
tp3185
g9
s(I38
I30
tp3186
(F48.451675833333333
F23.002704444444444
tp3187
s(I3
I8
tp3188
g9
s(I28
I0
tp3189
g9
s(I1
I34
tp3190
g9
s(I40
I3
tp3191
g9
s(I4
I41
tp3192
g9
s(I8
I44
tp3193
g9
s(I7
I12
tp3194
(F-100.4303663888889
F45.53579055555555
tp3195
s(I33
I36
tp3196
(F28.924589166666667
F15.232197777777778
tp3197
s(I16
I28
tp3198
(F-23.185185277777776
F42.796502222222223
tp3199
s(I41
I36
tp3200
g9
s(I22
I6
tp3201
(F-175.69689888888888
F72.772460555555554
tp3202
s(I44
I23
tp3203
(F80.131421666666654
F14.091813333333334
tp3204
s(I12
I40
tp3205
(F-27.827031111111111
F-1.3894452777777777
tp3206
s(I34
I29
tp3207
(F37.968222500000003
F33.821883333333339
tp3208
s(I24
I27
tp3209
(F5.7508588888888887
F48.293410833333333
tp3210
s(I10
I18
tp3211
(F-67.481512222222221
F53.029093888888887
tp3212
s(I13
I7
tp3213
(F-125.57417333333333
F58.727650277777776
tp3214
s(I0
I4
tp3215
g9
s(I38
I17
tp3216
(F79.352898888888888
F45.496189166666667
tp3217
s(I28
I31
tp3218
(F17.533776388888892
F35.768486666666668
tp3219
s(I40
I10
tp3220
(F113.248715
F32.165409444444442
tp3221
s(I21
I40
tp3222
(F-3.8677844444444447
F8.7643919444444442
tp3223
s(I4
I16
tp3224
(F-90.347319722222224
F34.69060972222222
tp3225
s(I26
I37
tp3226
(F9.4712638888888883
F19.034506111111114
tp3227
s(I7
I5
tp3228
g9
s(I16
I19
tp3229
(F-40.553616666666663
F63.619166666666665
tp3230
s(I22
I25
tp3231
(F-2.1460938888888887
F53.599847500000003
tp3232
s(I44
I14
tp3233
g9
s(I12
I39
tp3234
(F-27.87550388888889
F3.5263605555555553
tp3235
s(I34
I20
tp3236
(F57.1574375
F52.529933611111112
tp3237
s(I10
I29
tp3238
(F-40.958678055555559
F32.058064999999999
tp3239
s(I13
I0
tp3240
g9
s(I0
I27
tp3241
g9
s(I38
I8
tp3242
(F119.65264222222223
F37.561416666666666
tp3243
s(I25
I5
tp3244
(F163.03637805555556
F67.615225555555554
tp3245
s(I28
I22
tp3246
(F27.707028888888889
F58.28174111111111
tp3247
s(I14
I33
tp3248
(F-25.167808888888889
F27.336764166666665
tp3249
s(I4
I31
tp3250
(F-56.703681666666668
F10.357670555555556
tp3251
s(I26
I44
tp3252
(F9.272855555555557
F-15.123325833333334
tp3253
s(I7
I2
tp3254
g9
s(I16
I10
tp3255
(F-107.53585611111112
F72.364029166666654
tp3256
s(I19
I7
tp3257
(F-147.33254305555556
F73.250212500000004
tp3258
s(I41
I22
tp3259
(F72.128352222222219
F30.241645000000002
tp3260
s(I22
I16
tp3261
(F-5.5579052777777775
F76.735548611111113
tp3262
s(I44
I5
tp3263
g9
s(I37
I34
tp3264
(F41.555117222222222
F13.708444722222222
tp3265
s(I10
I4
tp3266
(F-139.48822194444443
F31.215794722222221
tp3267
s(I35
I20
tp3268
(F60.385460555555554
F50.280273611111113
tp3269
s(I0
I18
tp3270
g9
s(I38
I3
tp3271
g9
s(I25
I14
tp3272
(F39.995653611111109
F80.045048055555554
tp3273
s(I14
I40
tp3274
(F-22.221038333333333
F2.6451677777777776
tp3275
s(I4
I6
tp3276
g9
s(I29
I10
tp3277
(F107.53585611111112
F72.364029166666654
tp3278
s(I16
I1
tp3279
(F-160.10210000000001
F31.91734277777778
tp3280
s(I19
I12
tp3281
(F-78.666422777777782
F80.871496388888886
tp3282
s(I2
I44
tp3283
g9
s(I41
I31
tp3284
(F56.703681666666668
F10.357670555555556
tp3285
s(I22
I43
tp3286
(F-1.2796486111111109
F-5.6892469444444451
tp3287
s(I5
I33
tp3288
(F-51.681003611111109
F7.5451563888888886
tp3289
s(I9
I38
tp3290
(F-36.871203888888893
F0.44674277777777777
tp3291
s(I34
I38
tp3292
(F30.912078333333334
F5.7791300000000003
tp3293
s(I17
I38
tp3294
(F-14.609507777777777
F14.272693333333335
tp3295
s(I37
I43
tp3296
g9
s(I42
I38
tp3297
g9
s(I23
I8
tp3298
(F172.80138416666668
F79.785196666666664
tp3299
s(I10
I15
tp3300
(F-80.57762249999999
F55.725838055555556
tp3301
s(I35
I29
tp3302
(F40.958678055555559
F32.058064999999999
tp3303
s(I25
I23
tp3304
(F12.151473611111111
F58.139594166666669
tp3305
s(I1
I14
tp3306
g9
s(I39
I25
tp3307
(F59.521879444444444
F31.68926611111111
tp3308
s(I4
I13
tp3309
(F-102.00312305555556
F32.796372777777776
tp3310
s(I29
I3
tp3311
(F152.16813277777777
F51.773874444444445
tp3312
s(I19
I21
tp3313
(F-19.674807777777779
F62.482070555555559
tp3314
s(I2
I39
tp3315
g9
s(I41
I0
tp3316
g9
s(I22
I34
tp3317
(F-1.4594047222222222
F29.245790555555555
tp3318
s(I5
I42
tp3319
g9
s(I30
I34
tp3320
(F21.673506944444444
F25.502465277777777
tp3321
s(I34
I33
tp3322
(F33.746169166666668
F23.064009722222224
tp3323
s(I17
I31
tp3324
(F-17.533776388888892
F35.768486666666668
tp3325
s(I42
I33
tp3326
(F60.399914444444441
F-4.6219513888888892
tp3327
s(I23
I1
tp3328
(F178.12976444444445
F47.085055000000004
tp3329
s(I13
I43
tp3330
g9
s(I35
I2
tp3331
g9
s(I25
I24
tp3332
(F11.350452222222222
F55.628148333333336
tp3333
s(I11
I29
tp3334
(F-37.968222500000003
F33.821883333333339
tp3335
s(I1
I7
tp3336
g9
s(I39
I22
tp3337
(F66.391961388888902
F36.839863611111113
tp3338
s(I29
I28
tp3339
(F23.185185277777776
F42.796502222222223
tp3340
s(I19
I26
tp3341
(F-14.030957777777779
F50.088115555555561
tp3342
s(I41
I9
tp3343
g9
s(I22
I37
tp3344
(F-1.3538700000000001
F19.858925000000003
tp3345
s(I5
I19
tp3346
(F-77.686283611111108
F37.241457500000003
tp3347
s(I27
I42
tp3348
(F11.545200833333332
F-2.1503530555555557
tp3349
s(I30
I37
tp3350
(F20.277803055555555
F15.887650833333334
tp3351
s(I17
I16
tp3352
(F-48.981666666666669
F71.096076944444434
tp3353
s(I42
I40
tp3354
g9
s(I23
I30
tp3355
(F1.6749511111111111
F40.51168222222222
tp3356
s(I32
I14
tp3357
(F78.63769805555556
F64.490371111111116
tp3358
s(I13
I36
tp3359
(F-26.165670833333333
F16.766346666666667
tp3360
s(I35
I11
tp3361
(F101.66698527777778
F55.439526388888886
tp3362
s(I11
I18
tp3363
(F-64.411629166666671
F55.480119444444448
tp3364
s(I1
I24
tp3365
(F-78.102578611111099
F12.43705888888889
tp3366
s(I39
I15
tp3367
(F89.406383888888897
F42.830110833333336
tp3368
s(I26
I0
tp3369
g9
s(I29
I21
tp3370
(F34.535132222222224
F59.363890000000005
tp3371
s(I15
I38
tp3372
(F-19.947686111111111
F12.298030555555556
tp3373
s(I19
I35
tp3374
(F-9.9192916666666662
F25.441596944444445
tp3375
s(I5
I28
tp3376
(F-57.20100305555556
F22.287671388888892
tp3377
s(I27
I35
tp3378
(F12.739039166666666
F24.908048333333333
tp3379
s(I30
I44
tp3380
g9
s(I17
I9
tp3381
(F-119.57904472222222
F73.67559833333334
tp3382
s(I20
I2
tp3383
(F-169.34523916666669
F53.061631666666663
tp3384
s(I42
I19
tp3385
(F83.268498611111113
F29.228108888888887
tp3386
s(I23
I23
tp3387
(F2.4517672222222222
F58.703053888888888
tp3388
s(I32
I5
tp3389
(F136.23134388888889
F52.38375388888889
tp3390
s(I18
I40
tp3391
(F-11.632678611111112
F7.3049416666666662
tp3392
s(I11
I11
tp3393
(F-100.75862222222223
F58.650574444444445
tp3394
s(I14
I4
tp3395
(F-142.88317888888889
F51.241575833333336
tp3396
s(I36
I17
tp3397
(F74.253794722222224
F51.435593888888889
tp3398
s(I1
I17
tp3399
(F-97.705694722222219
F15.363805277777777
tp3400
s(I39
I4
tp3401
g9
s(I26
I11
tp3402
(F97.317208611111113
F80.976893888888895
tp3403
s(I19
I40
tp3404
(F-9.0368411111111104
F7.9615566666666666
tp3405
s(I5
I5
tp3406
g9
s(I30
I23
tp3407
(F34.198183055555553
F53.625578333333337
tp3408
s(I17
I2
tp3409
(F-158.58039777777776
F47.982877500000001
tp3410
s(I20
I9
tp3411
(F-138.02092388888892
F80.437676666666675
tp3412
s(I42
I26
tp3413
(F66.784958055555549
F19.434698611111113
tp3414
s(I23
I44
tp3415
(F1.306301388888889
F-12.896480555555556
tp3416
s(I6
I44
tp3417
g9
s(I10
I35
tp3418
(F-35.101027500000001
F14.950271666666666
tp3419
s(I32
I28
tp3420
(F33.081251666666667
F39.326722500000002
tp3421
s(I18
I35
tp3422
(F-12.739039166666666
F24.908048333333333
tp3423
s(I38
I38
tp3424
(F44.161189166666666
F-8.5764505555555548
tp3425
s(I43
I41
tp3426
g9
s(I8
I21
tp3427
(F-63.370086666666666
F43.869566944444443
tp3428
s(I11
I0
tp3429
g9
s(I14
I15
tp3430
(F-69.236187777777772
F66.170339166666665
tp3431
s(I36
I24
tp3432
(F52.744366388888892
F41.077340555555558
tp3433
s(I26
I18
tp3434
(F26.611666944444448
F69.679705555555557
tp3435
s(I2
I11
tp3436
g9
s(I24
I36
tp3437
(F4.1526125
F22.980044722222221
tp3438
s(I5
I14
tp3439
(F-95.580537777777778
F38.603568055555556
tp3440
s(I30
I30
tp3441
(F24.553302777777777
F36.662192222222224
tp3442
s(I20
I16
tp3443
(F-26.255009444444443
F75.453006111111108
tp3444
s(I42
I5
tp3445
g9
s(I23
I37
tp3446
(F1.3538700000000001
F19.858925000000003
tp3447
s(I6
I39
tp3448
g9
s(I10
I42
tp3449
g9
s(I32
I19
tp3450
(F53.554418055555551
F58.340044444444445
tp3451
s(I31
I37
tp3452
(F22.98790277777778
F14.686028055555555
tp3453
s(I18
I26
tp3454
(F-17.922013333333336
F49.463158611111112
tp3455
s(I8
I28
tp3456
(F-48.310947222222218
F30.347013611111109
tp3457
s(I14
I22
tp3458
(F-40.420242500000001
F54.363508611111115
tp3459
s(I36
I7
tp3460
(F123.24006888888889
F44.161717777777774
tp3461
s(I26
I29
tp3462
(F12.150319722222223
F42.348490000000005
tp3463
s(I12
I24
tp3464
(F-43.099845000000002
F46.922394444444443
tp3465
s(I2
I2
tp3466
g9
s(I24
I43
tp3467
(F3.8431500000000001
F-5.9300408333333339
tp3468
s(I30
I1
tp3469
g9
s(I20
I31
tp3470
(F-8.0384250000000002
F37.384881666666665
tp3471
s(I3
I33
tp3472
(F-60.399914444444441
F-4.6219513888888892
tp3473
s(I42
I12
tp3474
(F110.02991888888889
F22.711168055555554
tp3475
s(I23
I34
tp3476
(F1.4594047222222222
F29.245790555555555
tp3477
s(I6
I30
tp3478
(F-51.422150277777774
F20.272989722222221
tp3479
s(I32
I42
tp3480
(F25.544901944444447
F-11.723944166666667
tp3481
s(I31
I34
tp3482
(F24.507860833333332
F24.396747222222221
tp3483
s(I35
I39
tp3484
(F33.763239722222224
F-1.5630644444444446
tp3485
s(I18
I21
tp3486
(F-24.891650277777778
F61.629700833333331
tp3487
s(I43
I39
tp3488
g9
s(I8
I3
tp3489
g9
s(I33
I13
tp3490
(F87.18869222222223
F62.145426111111114
tp3491
s(I14
I25
tp3492
(F-34.202657500000001
F47.773985555555555
tp3493
s(I36
I14
tp3494
(F87.573384444444443
F53.091523888888894
tp3495
s(I12
I23
tp3496
(F-45.32998388888889
F48.989449722222226
tp3497
s(I2
I29
tp3498
(F-66.446663333333333
F6.3235644444444441
tp3499
s(I27
I15
tp3500
(F49.304354166666663
F74.705037222222231
tp3501
s(I30
I8
tp3502
(F122.70282722222223
F66.663811666666675
tp3503
s(I0
I43
tp3504
g9
s(I20
I38
tp3505
(F-6.6380916666666661
F16.015058888888888
tp3506
s(I3
I38
tp3507
g9
s(I6
I17
tp3508
(F-81.812841666666671
F42.193201388888887
tp3509
s(I28
I38
tp3510
(F14.609507777777777
F14.272693333333335
tp3511
s(I32
I33
tp3512
(F28.040970833333336
F26.084224722222221
tp3513
s(I31
I43
tp3514
(F23.437022777777777
F-18.229907777777775
tp3515
s(I35
I44
tp3516
g9
s(I18
I12
tp3517
(F-82.41950277777778
F78.359908333333323
tp3518
s(I40
I33
tp3519
(F51.681003611111109
F7.5451563888888886
tp3520
s(I21
I1
tp3521
(F-174.43277999999998
F46.591947777777783
tp3522
s(I43
I28
tp3523
(F67.487935000000007
F9.5069388888888895
tp3524
s(I8
I10
tp3525
(F-108.72319388888889
F47.120886944444443
tp3526
s(I33
I6
tp3527
(F129.73229499999999
F52.640248333333332
tp3528
s(I39
I40
tp3529
g9
s(I12
I14
tp3530
(F-81.147648055555564
F61.816787222222224
tp3531
s(I15
I3
tp3532
(F-149.45901583333332
F49.006880555555554
tp3533
s(I37
I18
tp3534
(F73.098879166666663
F47.659444444444446
tp3535
s(I2
I20
tp3536
(F-83.598244999999991
F23.533325833333333
tp3537
s(I27
I4
tp3538
(F155.82933444444444
F60.761048611111114
tp3539
s(I0
I34
tp3540
g9
s(I6
I8
tp3541
(F-121.52386722222222
F30.650466666666667
tp3542
s(I31
I16
tp3543
(F63.342419722222225
F64.994183055555553
tp3544
s(I18
I7
tp3545
(F-141.14150999999998
F71.411058611111116
tp3546
s(I40
I40
tp3547
g9
s(I21
I10
tp3548
(F-135.02461611111113
F84.587734444444436
tp3549
s(I43
I21
tp3550
(F80.918680277777781
F22.679431111111111
tp3551
s(I7
I43
tp3552
g9
s(I11
I44
tp3553
g9
s(I33
I31
tp3554
(F32.696318055555551
F30.242711944444444
tp3555
s(I39
I33
tp3556
(F48.388292777777778
F11.235440555555554
tp3557
s(I44
I44
tp3558
g9
s(I9
I22
tp3559
(F-57.611638333333332
F44.721718888888894
tp3560
s(I12
I5
tp3561
(F-134.77710444444446
F48.897068611111109
tp3562
s(I15
I8
tp3563
(F-122.70282722222223
F66.663811666666675
tp3564
s(I37
I27
tp3565
(F49.923494722222223
F32.626102777777781
tp3566
s(I24
I0
tp3567
g9
s(I27
I29
tp3568
(F15.558980277777778
F41.786914444444442
tp3569
s(I3
I20
tp3570
(F-80.376362499999999
F28.473558611111109
tp3571
s(I25
I39
tp3572
(F6.531608888888889
F12.368664166666667
tp3573
s(I6
I3
tp3574
g9
s(I31
I25
tp3575
(F34.202657500000001
F47.773985555555555
tp3576
s(I21
I19
tp3577
(F-10.546690833333333
F68.640066111111125
tp3578
s(I43
I10
tp3579
g9
s(I7
I32
tp3580
(F-46.215770277777779
F17.406790833333332
tp3581
s(I11
I37
tp3582
(F-31.244373611111111
F9.8061152777777778
tp3583
s(I33
I16
tp3584
(F70.225491944444443
F60.270240000000001
tp3585
s(I16
I40
tp3586
(F-16.869249444444446
F5.4248572222222222
tp3587
s(I44
I43
tp3588
g9
s(I9
I31
tp3589
(F-41.433826666666661
F24.949421666666666
tp3590
s(I15
I17
tp3591
(F-53.841856111111113
F65.615871388888877
tp3592
s(I37
I4
tp3593
g9
s(I24
I7
tp3594
(F164.2065536111111
F75.821429444444448
tp3595
s(I27
I18
tp3596
(F33.136029722222219
F68.538305277777781
tp3597
s(I13
I27
tp3598
(F-34.45890416666667
F41.736040277777782
tp3599
s(I3
I29
tp3600
(F-62.375631111111112
F11.993285277777776
tp3601
s(I25
I40
tp3602
(F6.4496025000000001
F8.4455519444444445
tp3603
s.