(dp1
(I31
I6
tp2
(F33.756350277777777
F47.166571944444442
tp3
s(I40
I22
tp4
(F51.075074722222226
F1.2733444444444444
tp5
s(I21
I28
tp6
(F-3.942331666666667
F-14.149004444444444
tp7
s(I4
I36
tp8
S'space'
p9
s(I43
I3
tp10
g9
s(I7
I25
tp11
(F-43.882448888888888
F-6.3793702777777774
tp12
s(I29
I44
tp13
(F78.496311944444443
F-72.853789999999989
tp14
s(I33
I41
tp15
(F55.076010555555555
F-55.307869444444442
tp16
s(I36
I34
tp17
(F44.272234722222223
F-30.737868611111111
tp18
s(I44
I34
tp19
g9
s(I9
I0
tp20
g9
s(I34
I8
tp21
(F41.945538611111111
F40.12403472222222
tp22
s(I15
I30
tp23
(F-20.704811111111109
F-19.471220555555554
tp24
s(I37
I13
tp25
(F45.309899166666661
F24.974965277777777
tp26
s(I24
I14
tp27
(F4.1290011111111111
F22.196100833333333
tp28
s(I13
I20
tp29
(F-25.14135388888889
F6.3793702777777774
tp30
s(I3
I2
tp31
g9
s(I28
I10
tp32
(F17.096825277777775
F33.748988611111109
tp33
s(I31
I15
tp34
(F23.621561111111113
F19.471220555555554
tp35
s(I1
I40
tp36
g9
s(I40
I29
tp37
(F54.332765833333333
F-16.791447222222224
tp38
s(I21
I37
tp39
(F-5.0017247222222219
F-40.12403472222222
tp40
s(I4
I35
tp41
(F-81.442332777777779
F-33.748988611111109
tp42
s(I8
I38
tp43
(F-62.754367500000001
F-43.542219166666662
tp44
s(I7
I22
tp45
(F-43.555670555555551
F1.2733444444444444
tp46
s(I29
I37
tp47
(F22.197774722222224
F-40.12403472222222
tp48
s(I33
I34
tp49
(F32.884144166666665
F-30.737868611111111
tp50
s(I16
I38
tp51
(F-23.486974166666666
F-43.542219166666662
tp52
s(I36
I41
tp53
g9
s(I41
I34
tp54
(F73.060358611111113
F-30.737868611111111
tp55
s(I22
I12
tp56
(F-1.4397622222222222
F27.818139166666665
tp57
s(I44
I25
tp58
(F74.051535000000001
F-6.3793702777777774
tp59
s(I9
I9
tp60
(F-48.590377777777782
F36.86989777777778
tp61
s(I34
I3
tp62
g9
s(I24
I21
tp63
(F3.8310894444444443
F3.8225536111111107
tp64
s(I13
I13
tp65
(F-27.760443333333335
F24.974965277777777
tp66
s(I0
I14
tp67
g9
s(I38
I31
tp68
(F48.075320000000005
F-22.196100833333333
tp69
s(I3
I11
tp70
g9
s(I28
I1
tp71
(F56.01215638888889
F72.853789999999989
tp72
s(I1
I33
tp73
g9
s(I40
I4
tp74
g9
s(I4
I42
tp75
g9
s(I7
I15
tp76
(F-46.943179999999998
F19.471220555555554
tp77
s(I16
I29
tp78
(F-17.563038611111111
F-16.791447222222224
tp79
s(I41
I43
tp80
g9
s(I22
I7
tp81
(F-1.7567900000000001
F43.542219166666662
tp82
s(I44
I16
tp83
(F86.479080833333342
F16.791447222222224
tp84
s(I12
I41
tp85
(F-55.076010555555555
F-55.307869444444442
tp86
s(I34
I26
tp87
(F31.158643055555554
F-8.9490180555555554
tp88
s(I24
I28
tp89
(F3.942331666666667
F-14.149004444444444
tp90
s(I10
I19
tp91
(F-34.222046944444443
F8.9490180555555554
tp92
s(I13
I6
tp93
(F-38.391713333333335
F47.166571944444442
tp94
s(I0
I5
tp95
g9
s(I38
I22
tp96
(F43.555670555555551
F1.2733444444444444
tp97
s(I25
I3
tp98
(F12.868706944444446
F60.073565000000002
tp99
s(I28
I24
tp100
(F14.181211666666666
F-3.8225536111111107
tp101
s(I40
I11
tp102
(F64.810283611111103
F30.737868611111111
tp103
s(I4
I17
tp104
(F-57.988974722222224
F14.149004444444444
tp105
s(I26
I34
tp106
(F10.426887499999999
F-30.737868611111111
tp107
s(I7
I4
tp108
g9
s(I16
I20
tp109
(F-16.899200277777776
F6.3793702777777774
tp110
s(I19
I1
tp111
(F-31.846464722222223
F72.853789999999989
tp112
s(I41
I44
tp113
g9
s(I22
I30
tp114
(F-1.3505994444444445
F-19.471220555555554
tp115
s(I44
I15
tp116
g9
s(I12
I32
tp117
(F-30.984412222222222
F-24.974965277777777
tp118
s(I34
I21
tp119
(F30.813865277777779
F3.8225536111111107
tp120
s(I17
I43
tp121
(F-36.375898333333332
F-65.659353333333343
tp122
s(I10
I26
tp123
(F-34.222046944444443
F-8.9490180555555554
tp124
s(I0
I28
tp125
g9
s(I38
I9
tp126
(F59.441568333333329
F36.86989777777778
tp127
s(I25
I4
tp128
(F11.257412222222221
F55.307869444444442
tp129
s(I28
I23
tp130
(F14.152572222222222
F-1.2733444444444444
tp131
s(I14
I38
tp132
(F-31.410660833333331
F-43.542219166666662
tp133
s(I4
I24
tp134
(F-55.492849722222225
F-3.8225536111111107
tp135
s(I16
I11
tp136
(F-19.639868055555556
F30.737868611111111
tp137
s(I19
I6
tp138
(F-13.226560000000001
F47.166571944444442
tp139
s(I41
I21
tp140
(F55.492849722222225
F3.8225536111111107
tp141
s(I22
I17
tp142
(F-1.313188888888889
F14.149004444444444
tp143
s(I5
I39
tp144
g9
s(I44
I6
tp145
g9
s(I34
I44
tp146
g9
s(I17
I44
tp147
(F-56.01215638888889
F-72.853789999999989
tp148
s(I37
I33
tp149
(F46.773539999999997
F-27.818139166666665
tp150
s(I10
I5
tp151
(F-62.114433055555558
F51.057558611111105
tp152
s(I35
I23
tp153
(F33.758445000000002
F-1.2733444444444444
tp154
s(I0
I19
tp155
g9
s(I38
I0
tp156
g9
s(I25
I13
tp157
(F7.040597222222222
F24.974965277777777
tp158
s(I14
I41
tp159
(F-41.585618333333336
F-55.307869444444442
tp160
s(I4
I7
tp161
g9
s(I29
I9
tp162
(F21.168448888888889
F36.86989777777778
tp163
s(I16
I2
tp164
(F-44.500302222222224
F65.659353333333343
tp165
s(I19
I15
tp166
(F-9.4967455555555542
F19.471220555555554
tp167
s(I41
I30
tp168
(F60.703406111111114
F-19.471220555555554
tp169
s(I22
I40
tp170
(F-2.0261338888888889
F-51.057558611111105
tp171
s(I5
I32
tp172
(F-59.093661666666669
F-24.974965277777777
tp173
s(I9
I37
tp174
(F-51.690311944444439
F-40.12403472222222
tp175
s(I34
I39
tp176
(F48.744674444444442
F-47.166571944444442
tp177
s(I17
I37
tp178
(F-18.64363472222222
F-40.12403472222222
tp179
s(I37
I42
tp180
g9
s(I42
I39
tp181
g9
s(I23
I11
tp182
(F1.4815122222222223
F30.737868611111111
tp183
s(I10
I12
tp184
(F-38.913663888888884
F27.818139166666665
tp185
s(I35
I28
tp186
(F34.955256111111112
F-14.149004444444444
tp187
s(I25
I22
tp188
(F6.3809524999999994
F1.2733444444444444
tp189
s(I1
I13
tp190
g9
s(I39
I24
tp191
(F47.304547222222219
F-3.8225536111111107
tp192
s(I4
I14
tp193
(F-62.626534722222225
F22.196100833333333
tp194
s(I29
I2
tp195
(F44.500302222222224
F65.659353333333343
tp196
s(I19
I20
tp197
(F-9.0052380555555551
F6.3793702777777774
tp198
s(I2
I36
tp199
g9
s(I41
I7
tp200
g9
s(I22
I35
tp201
(F-1.5314763888888889
F-33.748988611111109
tp202
s(I5
I41
tp203
g9
s(I30
I35
tp204
(F23.633945000000001
F-33.748988611111109
tp205
s(I17
I30
tp206
(F-15.026898333333333
F-19.471220555555554
tp207
s(I23
I0
tp208
g9
s(I32
I8
tp209
(F33.516443611111114
F40.12403472222222
tp210
s(I13
I42
tp211
(F-57.814421666666661
F-60.073565000000002
tp212
s(I35
I5
tp213
(F62.114433055555558
F51.057558611111105
tp214
s(I25
I31
tp215
(F6.8923241666666666
F-22.196100833333333
tp216
s(I11
I28
tp217
(F-31.809832500000002
F-14.149004444444444
tp218
s(I1
I6
tp219
g9
s(I39
I17
tp220
(F49.137011944444446
F14.149004444444444
tp221
s(I26
I6
tp222
(F13.226560000000001
F47.166571944444442
tp223
s(I29
I27
tp224
(F17.14830222222222
F-11.536959166666666
tp225
s(I19
I29
tp226
(F-9.3510722222222213
F-16.791447222222224
tp227
s(I41
I8
tp228
g9
s(I5
I18
tp229
(F-52.543577777777777
F11.536959166666666
tp230
s(I30
I42
tp231
(F41.924679999999995
F-60.073565000000002
tp232
s(I17
I23
tp233
(F-14.152572222222222
F-1.2733444444444444
tp234
s(I20
I4
tp235
(F-11.257412222222221
F55.307869444444442
tp236
s(I42
I41
tp237
g9
s(I23
I25
tp238
(F1.2812794444444444
F-6.3793702777777774
tp239
s(I32
I15
tp240
(F26.604819166666669
F19.471220555555554
tp241
s(I13
I35
tp242
(F-30.5171575
F-33.748988611111109
tp243
s(I35
I10
tp244
(F41.924679999999995
F33.748988611111109
tp245
s(I11
I21
tp246
(F-30.813865277777779
F3.8225536111111107
tp247
s(I14
I2
tp248
(F-66.430909444444453
F65.659353333333343
tp249
s(I1
I31
tp250
g9
s(I39
I14
tp251
(F52.375188055555554
F22.196100833333333
tp252
s(I26
I1
tp253
(F31.846464722222223
F72.853789999999989
tp254
s(I29
I20
tp255
(F16.899200277777776
F6.3793702777777774
tp256
s(I15
I33
tp257
(F-22.141123888888888
F-27.818139166666665
tp258
s(I19
I34
tp259
(F-10.426887499999999
F-30.737868611111111
tp260
s(I5
I27
tp261
(F-52.543577777777777
F-11.536959166666666
tp262
s(I27
I34
tp263
(F13.455463333333332
F-30.737868611111111
tp264
s(I17
I8
tp265
(F-18.64363472222222
F40.12403472222222
tp266
s(I20
I3
tp267
(F-12.868706944444446
F60.073565000000002
tp268
s(I42
I16
tp269
(F64.858967222222219
F16.791447222222224
tp270
s(I23
I22
tp271
(F1.2736588888888889
F1.2733444444444444
tp272
s(I6
I42
tp273
g9
s(I32
I6
tp274
(F38.391713333333335
F47.166571944444442
tp275
s(I18
I41
tp276
(F-20.57241638888889
F-55.307869444444442
tp277
s(I38
I44
tp278
g9
s(I11
I10
tp279
(F-37.930187222222223
F33.748988611111109
tp280
s(I14
I5
tp281
(F-36.944473333333328
F51.057558611111105
tp282
s(I36
I18
tp283
(F37.761243888888892
F11.536959166666666
tp284
s(I1
I16
tp285
(F-86.479080833333342
F16.791447222222224
tp286
s(I39
I7
tp287
g9
s(I26
I8
tp288
(F11.737805277777777
F40.12403472222222
tp289
s(I19
I43
tp290
(F-22.17363527777778
F-65.659353333333343
tp291
s(I5
I4
tp292
g9
s(I30
I20
tp293
(F19.597483611111109
F6.3793702777777774
tp294
s(I17
I1
tp295
(F-56.01215638888889
F72.853789999999989
tp296
s(I20
I10
tp297
(F-7.6794427777777781
F33.748988611111109
tp298
s(I42
I27
tp299
(F62.194716388888885
F-11.536959166666666
tp300
s(I10
I32
tp301
(F-37.796799999999998
F-24.974965277777777
tp302
s(I32
I29
tp303
(F26.169389722222224
F-16.791447222222224
tp304
s(I18
I32
tp305
(F-12.746076944444443
F-24.974965277777777
tp306
s(I38
I39
tp307
g9
s(I43
I40
tp308
g9
s(I8
I22
tp309
(F-40.135963055555557
F1.2733444444444444
tp310
s(I11
I3
tp311
g9
s(I14
I12
tp312
(F-25.286261666666668
F27.818139166666665
tp313
s(I36
I25
tp314
(F37.138109444444446
F-6.3793702777777774
tp315
s(I26
I19
tp316
(F9.0602183333333333
F8.9490180555555554
tp317
s(I2
I8
tp318
g9
s(I24
I37
tp319
(F5.0017247222222219
F-40.12403472222222
tp320
s(I5
I13
tp321
(F-59.093661666666669
F24.974965277777777
tp322
s(I30
I31
tp323
(F21.100903611111111
F-22.196100833333333
tp324
s(I20
I17
tp325
(F-6.5798224999999997
F14.149004444444444
tp326
s(I42
I2
tp327
g9
s(I23
I36
tp328
(F1.5917541666666668
F-36.86989777777778
tp329
s(I6
I36
tp330
(F-66.443535555555556
F-36.86989777777778
tp331
s(I10
I43
tp332
g9
s(I32
I20
tp333
(F25.14135388888889
F6.3793702777777774
tp334
s(I31
I36
tp335
(F28.178642777777778
F-36.86989777777778
tp336
s(I35
I33
tp337
(F38.913663888888884
F-27.818139166666665
tp338
s(I18
I27
tp339
(F-11.778232222222224
F-11.536959166666666
tp340
s(I43
I33
tp341
g9
s(I8
I29
tp342
(F-42.310310555555553
F-16.791447222222224
tp343
s(I33
I11
tp344
(F32.884144166666665
F30.737868611111111
tp345
s(I14
I23
tp346
(F-22.201875277777777
F-1.2733444444444444
tp347
s(I36
I0
tp348
g9
s(I26
I26
tp349
(F9.0602183333333333
F-8.9490180555555554
tp350
s(I12
I25
tp351
(F-28.006665277777778
F-6.3793702777777774
tp352
s(I2
I3
tp353
g9
s(I24
I44
tp354
(F13.069541388888888
F-72.853789999999989
tp355
s(I27
I9
tp356
(F14.477512222222222
F36.86989777777778
tp357
s(I30
I6
tp358
(F29.35966638888889
F47.166571944444442
tp359
s(I20
I24
tp360
(F-6.3936533333333339
F-3.8225536111111107
tp361
s(I3
I32
tp362
(F-72.953304722222228
F-24.974965277777777
tp363
s(I42
I13
tp364
(F72.953304722222228
F24.974965277777777
tp365
s(I6
I31
tp366
(F-52.375188055555554
F-22.196100833333333
tp367
s(I28
I40
tp368
(F22.886614444444444
F-51.057558611111105
tp369
s(I32
I43
tp370
g9
s(I35
I38
tp371
(F50.033859722222218
F-43.542219166666662
tp372
s(I18
I18
tp373
(F-11.778232222222224
F11.536959166666666
tp374
s(I21
I7
tp375
(F-5.277001666666667
F43.542219166666662
tp376
s(I43
I38
tp377
g9
s(I8
I4
tp378
g9
s(I33
I12
tp379
(F31.846464722222223
F27.818139166666665
tp380
s(I14
I30
tp381
(F-23.621561111111113
F-19.471220555555554
tp382
s(I36
I15
tp383
(F39.523607777777777
F19.471220555555554
tp384
s(I12
I16
tp385
(F-29.173131944444446
F16.791447222222224
tp386
s(I15
I5
tp387
(F-32.027760000000001
F51.057558611111105
tp388
s(I2
I26
tp389
(F-67.270400555555554
F-8.9490180555555554
tp390
s(I27
I14
tp391
(F12.474607222222222
F22.196100833333333
tp392
s(I30
I9
tp393
(F24.624318333333335
F36.86989777777778
tp394
s(I0
I44
tp395
g9
s(I20
I39
tp396
(F-9.4060486111111121
F-47.166571944444442
tp397
s(I3
I41
tp398
g9
s(I6
I22
tp399
(F-47.181839444444442
F1.2733444444444444
tp400
s(I28
I39
tp401
(F21.072332222222222
F-47.166571944444442
tp402
s(I32
I34
tp403
(F29.421675555555556
F-30.737868611111111
tp404
s(I31
I42
tp405
(F49.221499166666668
F-60.073565000000002
tp406
s(I18
I13
tp407
(F-12.746076944444443
F24.974965277777777
tp408
s(I40
I34
tp409
(F64.810283611111103
F-30.737868611111111
tp410
s(I21
I0
tp411
g9
s(I43
I31
tp412
(F79.747035555555556
F-22.196100833333333
tp413
s(I8
I11
tp414
(F-48.571077777777781
F30.737868611111111
tp415
s(I33
I5
tp416
(F47.941574999999993
F51.057558611111105
tp417
s(I39
I43
tp418
g9
s(I12
I15
tp419
(F-29.668085000000001
F19.471220555555554
tp420
s(I15
I2
tp421
(F-53.973573055555555
F65.659353333333343
tp422
s(I37
I17
tp423
(F41.652137222222223
F14.149004444444444
tp424
s(I2
I21
tp425
(F-65.943310277777783
F3.8225536111111107
tp426
s(I27
I7
tp427
(F16.016412777777777
F43.542219166666662
tp428
s(I0
I35
tp429
g9
s(I6
I9
tp430
(F-66.443535555555556
F36.86989777777778
tp431
s(I31
I19
tp432
(F22.484475
F8.9490180555555554
tp433
s(I18
I4
tp434
(F-20.57241638888889
F55.307869444444442
tp435
s(I40
I41
tp436
g9
s(I21
I9
tp437
(F-4.7801919444444447
F36.86989777777778
tp438
s(I43
I20
tp439
(F66.460918055555553
F6.3793702777777774
tp440
s(I7
I42
tp441
g9
s(I33
I30
tp442
(F29.668085000000001
F-19.471220555555554
tp443
s(I39
I32
tp444
(F53.996302222222226
F-24.974965277777777
tp445
s(I9
I21
tp446
(F-36.965770277777779
F3.8225536111111107
tp447
s(I12
I6
tp448
(F-43.346318888888888
F47.166571944444442
tp449
s(I15
I11
tp450
(F-22.818658055555556
F30.737868611111111
tp451
s(I37
I26
tp452
(F40.721726666666669
F-8.9490180555555554
tp453
s(I24
I1
tp454
(F13.069541388888888
F72.853789999999989
tp455
s(I27
I28
tp456
(F11.903101944444444
F-14.149004444444444
tp457
s(I3
I23
tp458
(F-60.098159722222228
F-1.2733444444444444
tp459
s(I25
I38
tp460
(F8.8173358333333329
F-43.542219166666662
tp461
s(I6
I0
tp462
g9
s(I31
I24
tp463
(F22.248234166666666
F-3.8225536111111107
tp464
s(I40
I16
tp465
(F54.332765833333333
F16.791447222222224
tp466
s(I21
I18
tp467
(F-3.9014983333333331
F11.536959166666666
tp468
s(I43
I13
tp469
g9
s(I7
I35
tp470
(F-55.945966388888884
F-33.748988611111109
tp471
s(I11
I36
tp472
(F-39.70901666666667
F-36.86989777777778
tp473
s(I33
I23
tp474
(F27.825606944444445
F-1.2733444444444444
tp475
s(I16
I41
tp476
(F-30.501753055555554
F-55.307869444444442
tp477
s(I36
I36
tp478
(F48.590377777777782
F-36.86989777777778
tp479
s(I44
I36
tp480
g9
s(I9
I30
tp481
(F-39.523607777777777
F-19.471220555555554
tp482
s(I34
I14
tp483
(F33.505543611111108
F22.196100833333333
tp484
s(I15
I16
tp485
(F-20.375960277777779
F16.791447222222224
tp486
s(I37
I3
tp487
g9
s(I24
I8
tp488
(F5.0017247222222219
F40.12403472222222
tp489
s(I27
I21
tp490
(F11.563037222222222
F3.8225536111111107
tp491
s(I13
I26
tp492
(F-25.304268055555557
F-8.9490180555555554
tp493
s(I3
I28
tp494
(F-63.352284166666671
F-14.149004444444444
tp495
s(I28
I12
tp496
(F16.044591944444445
F27.818139166666665
tp497
s(I31
I1
tp498
g9
s(I40
I23
tp499
(F51.075074722222226
F-1.2733444444444444
tp500
s(I21
I27
tp501
(F-3.9014983333333331
F-11.536959166666666
tp502
s(I4
I37
tp503
g9
s(I43
I2
tp504
g9
s(I8
I32
tp505
(F-45.309899166666661
F-24.974965277777777
tp506
s(I7
I24
tp507
(F-43.663750833333332
F-3.8225536111111107
tp508
s(I29
I43
tp509
(F44.500302222222224
F-65.659353333333343
tp510
s(I33
I40
tp511
(F47.941574999999993
F-51.057558611111105
tp512
s(I16
I32
tp513
(F-18.583642777777776
F-24.974965277777777
tp514
s(I36
I35
tp515
(F46.187180833333329
F-33.748988611111109
tp516
s(I22
I10
tp517
(F-1.5314763888888889
F33.748988611111109
tp518
s(I44
I35
tp519
g9
s(I9
I7
tp520
(F-55.867083333333333
F43.542219166666662
tp521
s(I34
I9
tp522
(F39.70901666666667
F36.86989777777778
tp523
s(I15
I25
tp524
(F-19.597483611111109
F-6.3793702777777774
tp525
s(I37
I12
tp526
(F46.773539999999997
F27.818139166666665
tp527
s(I24
I15
tp528
(F4.0548072222222222
F19.471220555555554
tp529
s(I13
I19
tp530
(F-25.304268055555557
F8.9490180555555554
tp531
s(I0
I8
tp532
g9
s(I3
I5
tp533
g9
s(I28
I11
tp534
(F16.522881111111111
F30.737868611111111
tp535
s(I31
I14
tp536
(F24.080079166666668
F22.196100833333333
tp537
s(I40
I30
tp538
(F55.584224444444445
F-19.471220555555554
tp539
s(I21
I36
tp540
(F-4.7801919444444447
F-36.86989777777778
tp541
s(I4
I44
tp542
g9
s(I8
I39
tp543
(F-71.422690833333334
F-47.166571944444442
tp544
s(I7
I17
tp545
(F-45.270834999999998
F14.149004444444444
tp546
s(I29
I36
tp547
(F21.168448888888889
F-36.86989777777778
tp548
s(I33
I33
tp549
(F31.846464722222223
F-27.818139166666665
tp550
s(I16
I39
tp551
(F-25.145491666666665
F-47.166571944444442
tp552
s(I36
I42
tp553
g9
s(I41
I33
tp554
(F68.381873888888876
F-27.818139166666665
tp555
s(I22
I13
tp556
(F-1.4047191666666665
F24.974965277777777
tp557
s(I44
I26
tp558
(F75.31422666666667
F-8.9490180555555554
tp559
s(I9
I8
tp560
(F-51.690311944444439
F40.12403472222222
tp561
s(I34
I0
tp562
g9
s(I24
I22
tp563
(F3.8234994444444443
F1.2733444444444444
tp564
s(I13
I12
tp565
(F-28.515270277777777
F27.818139166666665
tp566
s(I0
I15
tp567
g9
s(I38
I28
tp568
(F45.270834999999998
F-14.149004444444444
tp569
s(I3
I10
tp570
g9
s(I28
I2
tp571
(F36.375898333333332
F65.659353333333343
tp572
s(I1
I32
tp573
g9
s(I40
I5
tp574
g9
s(I4
I43
tp575
g9
s(I7
I14
tp576
(F-48.075320000000005
F22.196100833333333
tp577
s(I16
I30
tp578
(F-17.84319
F-19.471220555555554
tp579
s(I41
I42
tp580
g9
s(I22
I4
tp581
(F-2.2375930555555557
F55.307869444444442
tp582
s(I44
I17
tp583
(F80.214480555555554
F14.149004444444444
tp584
s(I12
I42
tp585
(F-69.295188888888887
F-60.073565000000002
tp586
s(I34
I27
tp587
(F31.443035277777778
F-11.536959166666666
tp588
s(I24
I29
tp589
(F3.9930663888888889
F-16.791447222222224
tp590
s(I10
I16
tp591
(F-35.471500277777778
F16.791447222222224
tp592
s(I13
I5
tp593
(F-42.20238638888889
F51.057558611111105
tp594
s(I0
I6
tp595
g9
s(I38
I23
tp596
(F43.555670555555551
F-1.2733444444444444
tp597
s(I25
I2
tp598
(F15.639390833333334
F65.659353333333343
tp599
s(I28
I25
tp600
(F14.239015833333333
F-6.3793702777777774
tp601
s(I40
I12
tp602
(F61.571043611111115
F27.818139166666665
tp603
s(I4
I18
tp604
(F-57.053318888888889
F11.536959166666666
tp605
s(I26
I35
tp606
(F10.782592500000002
F-33.748988611111109
tp607
s(I7
I7
tp608
(F-71.872401944444434
F43.542219166666662
tp609
s(I16
I21
tp610
(F-16.830000277777778
F3.8225536111111107
tp611
s(I19
I0
tp612
g9
s(I41
I19
tp613
(F56.341351944444447
F8.9490180555555554
tp614
s(I22
I31
tp615
(F-1.3752747222222224
F-22.196100833333333
tp616
s(I44
I8
tp617
g9
s(I12
I33
tp618
(F-31.846464722222223
F-27.818139166666665
tp619
s(I34
I18
tp620
(F31.443035277777778
F11.536959166666666
tp621
s(I17
I42
tp622
(F-29.339197499999997
F-60.073565000000002
tp623
s(I37
I39
tp624
(F71.422690833333334
F-47.166571944444442
tp625
s(I10
I27
tp626
(F-34.542091388888885
F-11.536959166666666
tp627
s(I35
I17
tp628
(F34.955256111111112
F14.149004444444444
tp629
s(I0
I29
tp630
g9
s(I38
I14
tp631
(F48.075320000000005
F22.196100833333333
tp632
s(I25
I11
tp633
(F7.4275216666666672
F30.737868611111111
tp634
s(I28
I16
tp635
(F14.793204722222223
F16.791447222222224
tp636
s(I14
I39
tp637
(F-33.756350277777777
F-47.166571944444442
tp638
s(I4
I25
tp639
(F-55.826978888888895
F-6.3793702777777774
tp640
s(I26
I42
tp641
(F18.168028888888891
F-60.073565000000002
tp642
s(I29
I15
tp643
(F17.84319
F19.471220555555554
tp644
s(I16
I12
tp645
(F-19.064799166666667
F27.818139166666665
tp646
s(I19
I9
tp647
(F-11.212271388888889
F36.86989777777778
tp648
s(I41
I20
tp649
(F55.826978888888895
F6.3793702777777774
tp650
s(I22
I22
tp651
(F-1.2736588888888889
F1.2733444444444444
tp652
s(I5
I38
tp653
g9
s(I44
I7
tp654
g9
s(I9
I35
tp655
(F-46.187180833333329
F-33.748988611111109
tp656
s(I17
I35
tp657
(F-17.096825277777775
F-33.748988611111109
tp658
s(I37
I32
tp659
(F45.309899166666661
F-24.974965277777777
tp660
s(I23
I13
tp661
(F1.4047191666666665
F24.974965277777777
tp662
s(I10
I2
tp663
g9
s(I35
I22
tp664
(F33.758445000000002
F1.2733444444444444
tp665
s(I0
I20
tp666
g9
s(I38
I1
tp667
g9
s(I25
I12
tp668
(F7.2171230555555557
F27.818139166666665
tp669
s(I1
I11
tp670
g9
s(I4
I0
tp671
g9
s(I29
I8
tp672
(F22.197774722222224
F40.12403472222222
tp673
s(I16
I3
tp674
(F-35.384878611111112
F60.073565000000002
tp675
s(I19
I14
tp676
(F-9.6718674999999994
F22.196100833333333
tp677
s(I2
I42
tp678
g9
s(I41
I29
tp679
(F59.186691666666661
F-16.791447222222224
tp680
s(I22
I41
tp681
(F-2.2375930555555557
F-55.307869444444442
tp682
s(I9
I36
tp683
(F-48.590377777777782
F-36.86989777777778
tp684
s(I34
I36
tp685
(F39.70901666666667
F-36.86989777777778
tp686
s(I17
I36
tp687
(F-17.791590555555558
F-36.86989777777778
tp688
s(I37
I41
tp689
g9
s(I42
I36
tp690
g9
s(I23
I10
tp691
(F1.5314763888888889
F33.748988611111109
tp692
s(I10
I13
tp693
(F-37.796799999999998
F24.974965277777777
tp694
s(I35
I31
tp695
(F36.871272777777776
F-22.196100833333333
tp696
s(I25
I21
tp697
(F6.3936533333333339
F3.8225536111111107
tp698
s(I1
I12
tp699
g9
s(I39
I27
tp700
(F48.456739166666672
F-11.536959166666666
tp701
s(I4
I15
tp702
(F-60.703406111111114
F19.471220555555554
tp703
s(I29
I1
tp704
(F78.496311944444443
F72.853789999999989
tp705
s(I19
I23
tp706
(F-8.9512466666666661
F-1.2733444444444444
tp707
s(I2
I37
tp708
g9
s(I41
I6
tp709
g9
s(I22
I32
tp710
(F-1.4047191666666665
F-24.974965277777777
tp711
s(I5
I40
tp712
g9
s(I30
I32
tp713
(F21.574933888888889
F-24.974965277777777
tp714
s(I17
I29
tp715
(F-14.793204722222223
F-16.791447222222224
tp716
s(I23
I3
tp717
(F2.5530016666666664
F60.073565000000002
tp718
s(I32
I9
tp719
(F31.855430833333333
F36.86989777777778
tp720
s(I13
I41
tp721
(F-47.887141944444444
F-55.307869444444442
tp722
s(I35
I4
tp723
(F77.44453138888889
F55.307869444444442
tp724
s(I25
I30
tp725
(F6.7681013888888888
F-19.471220555555554
tp726
s(I11
I31
tp727
(F-33.505543611111108
F-22.196100833333333
tp728
s(I1
I5
tp729
g9
s(I39
I16
tp730
(F49.995438888888891
F16.791447222222224
tp731
s(I26
I7
tp732
(F12.391988888888889
F43.542219166666662
tp733
s(I29
I26
tp734
(F17.004620555555555
F-8.9490180555555554
tp735
s(I19
I28
tp736
(F-9.2314052777777782
F-14.149004444444444
tp737
s(I41
I15
tp738
(F60.703406111111114
F19.471220555555554
tp739
s(I5
I17
tp740
(F-53.332181111111112
F14.149004444444444
tp741
s(I27
I44
tp742
(F42.718780555555554
F-72.853789999999989
tp743
s(I30
I43
tp744
(F53.973573055555555
F-65.659353333333343
tp745
s(I17
I22
tp746
(F-14.152572222222222
F1.2733444444444444
tp747
s(I20
I5
tp748
(F-10.182067499999999
F51.057558611111105
tp749
s(I42
I22
tp750
(F60.098159722222228
F1.2733444444444444
tp751
s(I23
I24
tp752
(F1.2761838888888888
F-3.8225536111111107
tp753
s(I32
I0
tp754
g9
s(I13
I34
tp755
(F-29.421675555555556
F-30.737868611111111
tp756
s(I35
I13
tp757
(F37.796799999999998
F24.974965277777777
tp758
s(I38
I42
tp759
g9
s(I11
I20
tp760
(F-30.950385833333332
F6.3793702777777774
tp761
s(I14
I3
tp762
(F-49.221499166666668
F60.073565000000002
tp763
s(I36
I20
tp764
(F37.138109444444446
F6.3793702777777774
tp765
s(I1
I30
tp766
g9
s(I39
I9
tp767
(F66.443535555555556
F36.86989777777778
tp768
s(I26
I14
tp769
(F9.6718674999999994
F22.196100833333333
tp770
s(I29
I19
tp771
(F17.004620555555555
F8.9490180555555554
tp772
s(I15
I32
tp773
(F-21.574933888888889
F-24.974965277777777
tp774
s(I19
I37
tp775
(F-11.737805277777777
F-40.12403472222222
tp776
s(I5
I26
tp777
(F-51.939686111111108
F-8.9490180555555554
tp778
s(I27
I37
tp779
(F15.162480277777778
F-40.12403472222222
tp780
s(I30
I18
tp781
(F19.889480555555554
F11.536959166666666
tp782
s(I17
I15
tp783
(F-15.026898333333333
F19.471220555555554
tp784
s(I20
I12
tp785
(F-7.2171230555555557
F27.818139166666665
tp786
s(I42
I17
tp787
(F63.352284166666671
F14.149004444444444
tp788
s(I23
I17
tp789
(F1.313188888888889
F14.149004444444444
tp790
s(I6
I43
tp791
g9
s(I10
I38
tp792
(F-50.033859722222218
F-43.542219166666662
tp793
s(I32
I7
tp794
(F35.625329444444446
F43.542219166666662
tp795
s(I18
I38
tp796
(F-16.016412777777777
F-43.542219166666662
tp797
s(I8
I16
tp798
(F-42.310310555555553
F16.791447222222224
tp799
s(I11
I13
tp800
(F-34.321353611111114
F24.974965277777777
tp801
s(I14
I10
tp802
(F-27.02274111111111
F33.748988611111109
tp803
s(I36
I19
tp804
(F37.401289166666665
F8.9490180555555554
tp805
s(I1
I23
tp806
(F-72.899720833333333
F-1.2733444444444444
tp807
s(I39
I6
tp808
g9
s(I26
I9
tp809
(F11.212271388888889
F36.86989777777778
tp810
s(I15
I41
tp811
(F-35.849036388888891
F-55.307869444444442
tp812
s(I19
I42
tp813
(F-18.168028888888891
F-60.073565000000002
tp814
s(I2
I14
tp815
(F-79.747035555555556
F22.196100833333333
tp816
s(I5
I3
tp817
g9
s(I30
I21
tp818
(F19.516393333333333
F3.8225536111111107
tp819
s(I17
I0
tp820
g9
s(I20
I11
tp821
(F-7.4275216666666672
F30.737868611111111
tp822
s(I42
I24
tp823
(F60.29624444444444
F-3.8225536111111107
tp824
s(I6
I34
tp825
(F-58.560860277777778
F-30.737868611111111
tp826
s(I10
I33
tp827
(F-38.913663888888884
F-27.818139166666665
tp828
s(I32
I30
tp829
(F26.604819166666669
F-19.471220555555554
tp830
s(I18
I33
tp831
(F-13.069541388888888
F-27.818139166666665
tp832
s(I38
I36
tp833
(F59.441568333333329
F-36.86989777777778
tp834
s(I43
I43
tp835
g9
s(I8
I23
tp836
(F-40.135963055555557
F-1.2733444444444444
tp837
s(I11
I2
tp838
g9
s(I14
I13
tp839
(F-24.629368333333336
F24.974965277777777
tp840
s(I36
I26
tp841
(F37.401289166666665
F-8.9490180555555554
tp842
s(I26
I16
tp843
(F9.3510722222222213
F16.791447222222224
tp844
s(I2
I9
tp845
g9
s(I24
I38
tp846
(F5.277001666666667
F-43.542219166666662
tp847
s(I5
I12
tp848
(F-61.571043611111115
F27.818139166666665
tp849
s(I30
I28
tp850
(F20.106238055555558
F-14.149004444444444
tp851
s(I20
I18
tp852
(F-6.5114808333333336
F11.536959166666666
tp853
s(I42
I3
tp854
g9
s(I23
I39
tp855
(F1.8731047222222224
F-47.166571944444442
tp856
s(I6
I37
tp857
(F-73.545104166666661
F-40.12403472222222
tp858
s(I10
I40
tp859
(F-62.114433055555558
F-51.057558611111105
tp860
s(I32
I21
tp861
(F25.034482500000003
F3.8225536111111107
tp862
s(I31
I39
tp863
(F33.756350277777777
F-47.166571944444442
tp864
s(I35
I32
tp865
(F37.796799999999998
F-24.974965277777777
tp866
s(I18
I24
tp867
(F-11.563037222222222
F-3.8225536111111107
tp868
s(I43
I32
tp869
g9
s(I8
I30
tp870
(F-43.120623888888886
F-19.471220555555554
tp871
s(I33
I10
tp872
(F34.142191388888889
F33.748988611111109
tp873
s(I14
I20
tp874
(F-22.341831666666664
F6.3793702777777774
tp875
s(I36
I1
tp876
g9
s(I26
I27
tp877
(F9.1351166666666668
F-11.536959166666666
tp878
s(I12
I26
tp879
(F-28.191325555555554
F-8.9490180555555554
tp880
s(I2
I0
tp881
g9
s(I27
I8
tp882
(F15.162480277777778
F40.12403472222222
tp883
s(I30
I7
tp884
(F27.377719444444445
F43.542219166666662
tp885
s(I20
I25
tp886
(F-6.4192841666666673
F-6.3793702777777774
tp887
s(I3
I35
tp888
g9
s(I42
I10
tp889
g9
s(I6
I28
tp890
(F-49.137011944444446
F-14.149004444444444
tp891
s(I28
I41
tp892
(F25.434427500000002
F-55.307869444444442
tp893
s(I32
I44
tp894
g9
s(I31
I44
tp895
g9
s(I35
I41
tp896
(F77.44453138888889
F-55.307869444444442
tp897
s(I18
I19
tp898
(F-11.681117499999999
F8.9490180555555554
tp899
s(I21
I6
tp900
(F-5.6273563888888898
F47.166571944444442
tp901
s(I43
I25
tp902
(F66.460918055555553
F-6.3793702777777774
tp903
s(I8
I5
tp904
g9
s(I33
I3
tp905
(F69.295188888888887
F60.073565000000002
tp906
s(I14
I31
tp907
(F-24.080079166666668
F-22.196100833333333
tp908
s(I36
I8
tp909
(F51.690311944444439
F40.12403472222222
tp910
s(I12
I17
tp911
(F-28.768165555555555
F14.149004444444444
tp912
s(I15
I4
tp913
(F-35.849036388888891
F55.307869444444442
tp914
s(I37
I23
tp915
(F40.135963055555557
F-1.2733444444444444
tp916
s(I2
I27
tp917
(F-68.419058333333339
F-11.536959166666666
tp918
s(I27
I1
tp919
(F42.718780555555554
F72.853789999999989
tp920
s(I30
I14
tp921
(F21.100903611111111
F22.196100833333333
tp922
s(I20
I32
tp923
(F-7.040597222222222
F-24.974965277777777
tp924
s(I3
I40
tp925
g9
s(I6
I23
tp926
(F-47.181839444444442
F-1.2733444444444444
tp927
s(I28
I32
tp928
(F15.644017222222221
F-24.974965277777777
tp929
s(I32
I35
tp930
(F30.5171575
F-33.748988611111109
tp931
s(I31
I21
tp932
(F22.248234166666666
F3.8225536111111107
tp933
s(I18
I10
tp934
(F-13.918125555555555
F33.748988611111109
tp935
s(I40
I35
tp936
(F69.295188888888887
F-33.748988611111109
tp937
s(I21
I15
tp938
(F-4.0548072222222222
F19.471220555555554
tp939
s(I43
I30
tp940
(F75.100710555555551
F-19.471220555555554
tp941
s(I8
I12
tp942
(F-46.773539999999997
F27.818139166666665
tp943
s(I7
I44
tp944
g9
s(I11
I41
tp945
(F-63.896295833333333
F-55.307869444444442
tp946
s(I33
I4
tp947
(F55.076010555555555
F55.307869444444442
tp948
s(I39
I42
tp949
g9
s(I9
I19
tp950
(F-37.401289166666665
F8.9490180555555554
tp951
s(I12
I8
tp952
(F-37.611205555555557
F40.12403472222222
tp953
s(I15
I13
tp954
(F-21.574933888888889
F24.974965277777777
tp955
s(I37
I16
tp956
(F42.310310555555553
F16.791447222222224
tp957
s(I2
I18
tp958
(F-68.419058333333339
F11.536959166666666
tp959
s(I27
I6
tp960
(F17.108025555555557
F47.166571944444442
tp961
s(I0
I36
tp962
g9
s(I3
I17
tp963
(F-63.352284166666671
F14.149004444444444
tp964
s(I6
I14
tp965
(F-52.375188055555554
F22.196100833333333
tp966
s(I31
I18
tp967
(F22.678996388888891
F11.536959166666666
tp968
s(I18
I5
tp969
(F-18.553985555555556
F51.057558611111105
tp970
s(I40
I42
tp971
g9
s(I21
I8
tp972
(F-5.0017247222222219
F40.12403472222222
tp973
s(I43
I23
tp974
(F65.690656944444441
F-1.2733444444444444
tp975
s(I7
I37
tp976
(F-64.279156388888893
F-40.12403472222222
tp977
s(I33
I29
tp978
(F29.173131944444446
F-16.791447222222224
tp979
s(I39
I35
tp980
(F61.879963611111108
F-33.748988611111109
tp981
s(I9
I20
tp982
(F-37.138109444444446
F6.3793702777777774
tp983
s(I12
I7
tp984
(F-40.07548666666667
F43.542219166666662
tp985
s(I15
I10
tp986
(F-23.633945000000001
F33.748988611111109
tp987
s(I37
I25
tp988
(F40.425571388888883
F-6.3793702777777774
tp989
s(I24
I2
tp990
(F9.3084383333333349
F65.659353333333343
tp991
s(I27
I31
tp992
(F12.474607222222222
F-22.196100833333333
tp993
s(I3
I22
tp994
(F-60.098159722222228
F1.2733444444444444
tp995
s(I25
I37
tp996
(F8.3552047222222221
F-40.12403472222222
tp997
s(I6
I1
tp998
g9
s(I31
I27
tp999
(F22.678996388888891
F-11.536959166666666
tp1000
s(I40
I17
tp1001
(F53.332181111111112
F14.149004444444444
tp1002
s(I21
I17
tp1003
(F-3.942331666666667
F14.149004444444444
tp1004
s(I43
I12
tp1005
g9
s(I7
I34
tp1006
(F-53.272232500000001
F-30.737868611111111
tp1007
s(I11
I39
tp1008
(F-48.744674444444442
F-47.166571944444442
tp1009
s(I33
I22
tp1010
(F27.825606944444445
F1.2733444444444444
tp1011
s(I16
I42
tp1012
(F-35.384878611111112
F-60.073565000000002
tp1013
s(I36
I37
tp1014
(F51.690311944444439
F-40.12403472222222
tp1015
s(I44
I37
tp1016
g9
s(I9
I29
tp1017
(F-38.8086725
F-16.791447222222224
tp1018
s(I34
I15
tp1019
(F32.827746111111118
F19.471220555555554
tp1020
s(I15
I19
tp1021
(F-19.721039444444443
F8.9490180555555554
tp1022
s(I37
I2
tp1023
g9
s(I24
I9
tp1024
(F4.7801919444444447
F36.86989777777778
tp1025
s(I27
I20
tp1026
(F11.609838055555555
F6.3793702777777774
tp1027
s(I13
I25
tp1028
(F-25.14135388888889
F-6.3793702777777774
tp1029
s(I3
I31
tp1030
(F-69.395183333333335
F-22.196100833333333
tp1031
s(I28
I13
tp1032
(F15.644017222222221
F24.974965277777777
tp1033
s(I31
I0
tp1034
g9
s(I40
I24
tp1035
(F51.215912222222222
F-3.8225536111111107
tp1036
s(I21
I26
tp1037
(F-3.8697297222222224
F-8.9490180555555554
tp1038
s(I4
I38
tp1039
g9
s(I43
I5
tp1040
g9
s(I8
I33
tp1041
(F-46.773539999999997
F-27.818139166666665
tp1042
s(I7
I27
tp1043
(F-44.675788611111109
F-11.536959166666666
tp1044
s(I29
I42
tp1045
(F35.384878611111112
F-60.073565000000002
tp1046
s(I16
I33
tp1047
(F-19.064799166666667
F-27.818139166666665
tp1048
s(I36
I44
tp1049
g9
s(I22
I11
tp1050
(F-1.4815122222222223
F30.737868611111111
tp1051
s(I44
I28
tp1052
(F80.214480555555554
F-14.149004444444444
tp1053
s(I9
I6
tp1054
(F-61.9481775
F47.166571944444442
tp1055
s(I34
I6
tp1056
(F48.744674444444442
F47.166571944444442
tp1057
s(I15
I24
tp1058
(F-19.516393333333333
F-3.8225536111111107
tp1059
s(I37
I11
tp1060
(F48.571077777777781
F30.737868611111111
tp1061
s(I24
I16
tp1062
(F3.9930663888888889
F16.791447222222224
tp1063
s(I13
I18
tp1064
(F-25.526515555555555
F11.536959166666666
tp1065
s(I0
I9
tp1066
g9
s(I38
I26
tp1067
(F44.217014722222224
F-8.9490180555555554
tp1068
s(I3
I4
tp1069
g9
s(I28
I4
tp1070
(F25.434427500000002
F55.307869444444442
tp1071
s(I31
I9
tp1072
(F28.178642777777778
F36.86989777777778
tp1073
s(I40
I31
tp1074
(F57.142958333333333
F-22.196100833333333
tp1075
s(I21
I35
tp1076
(F-4.5988186111111107
F-33.748988611111109
tp1077
s(I8
I40
tp1078
g9
s(I7
I16
tp1079
(F-46.018943611111112
F16.791447222222224
tp1080
s(I29
I35
tp1081
(F20.330790277777776
F-33.748988611111109
tp1082
s(I33
I32
tp1083
(F30.984412222222222
F-24.974965277777777
tp1084
s(I16
I24
tp1085
(F-16.830000277777778
F-3.8225536111111107
tp1086
s(I36
I43
tp1087
g9
s(I41
I32
tp1088
(F65.099062500000002
F-24.974965277777777
tp1089
s(I22
I2
tp1090
(F-3.0906800000000003
F65.659353333333343
tp1091
s(I44
I27
tp1092
(F77.228595555555557
F-11.536959166666666
tp1093
s(I9
I15
tp1094
(F-39.523607777777777
F19.471220555555554
tp1095
s(I12
I44
tp1096
g9
s(I34
I1
tp1097
g9
s(I24
I23
tp1098
(F3.8234994444444443
F-1.2733444444444444
tp1099
s(I10
I22
tp1100
(F-33.758445000000002
F1.2733444444444444
tp1101
s(I13
I11
tp1102
(F-29.421675555555556
F30.737868611111111
tp1103
s(I0
I0
tp1104
g9
s(I38
I29
tp1105
(F46.018943611111112
F-16.791447222222224
tp1106
s(I3
I13
tp1107
(F-72.953304722222228
F24.974965277777777
tp1108
s(I28
I3
tp1109
(F29.339197499999997
F60.073565000000002
tp1110
s(I1
I39
tp1111
g9
s(I40
I6
tp1112
g9
s(I21
I44
tp1113
(F-13.069541388888888
F-72.853789999999989
tp1114
s(I4
I20
tp1115
(F-55.826978888888895
F6.3793702777777774
tp1116
s(I7
I9
tp1117
(F-59.441568333333329
F36.86989777777778
tp1118
s(I16
I31
tp1119
(F-18.180403333333334
F-22.196100833333333
tp1120
s(I41
I41
tp1121
g9
s(I22
I5
tp1122
(F-2.0261338888888889
F51.057558611111105
tp1123
s(I44
I18
tp1124
(F77.228595555555557
F11.536959166666666
tp1125
s(I12
I43
tp1126
g9
s(I34
I24
tp1127
(F30.813865277777779
F-3.8225536111111107
tp1128
s(I24
I30
tp1129
(F4.0548072222222222
F-19.471220555555554
tp1130
s(I10
I17
tp1131
(F-34.955256111111112
F14.149004444444444
tp1132
s(I13
I4
tp1133
(F-47.887141944444444
F55.307869444444442
tp1134
s(I0
I7
tp1135
g9
s(I38
I20
tp1136
(F43.882448888888888
F6.3793702777777774
tp1137
s(I25
I1
tp1138
(F22.141123888888888
F72.853789999999989
tp1139
s(I28
I26
tp1140
(F14.327063611111111
F-8.9490180555555554
tp1141
s(I40
I13
tp1142
(F59.093661666666669
F24.974965277777777
tp1143
s(I4
I19
tp1144
(F-56.341351944444447
F8.9490180555555554
tp1145
s(I26
I32
tp1146
(F9.8809536111111118
F-24.974965277777777
tp1147
s(I7
I6
tp1148
g9
s(I16
I22
tp1149
(F-16.795717777777778
F1.2733444444444444
tp1150
s(I19
I3
tp1151
(F-18.168028888888891
F60.073565000000002
tp1152
s(I41
I18
tp1153
(F57.053318888888889
F11.536959166666666
tp1154
s(I22
I28
tp1155
(F-1.313188888888889
F-14.149004444444444
tp1156
s(I44
I9
tp1157
g9
s(I12
I34
tp1158
(F-32.884144166666665
F-30.737868611111111
tp1159
s(I34
I19
tp1160
(F31.158643055555554
F8.9490180555555554
tp1161
s(I17
I41
tp1162
(F-25.434427500000002
F-55.307869444444442
tp1163
s(I37
I38
tp1164
(F62.754367500000001
F-43.542219166666662
tp1165
s(I10
I24
tp1166
(F-33.834387777777778
F-3.8225536111111107
tp1167
s(I35
I16
tp1168
(F35.471500277777778
F16.791447222222224
tp1169
s(I0
I30
tp1170
g9
s(I38
I15
tp1171
(F46.943179999999998
F19.471220555555554
tp1172
s(I25
I10
tp1173
(F7.6794427777777781
F33.748988611111109
tp1174
s(I28
I17
tp1175
(F14.601345833333333
F14.149004444444444
tp1176
s(I14
I36
tp1177
(F-28.178642777777778
F-36.86989777777778
tp1178
s(I4
I26
tp1179
(F-56.341351944444447
F-8.9490180555555554
tp1180
s(I26
I43
tp1181
(F22.17363527777778
F-65.659353333333343
tp1182
s(I29
I14
tp1183
(F18.180403333333334
F22.196100833333333
tp1184
s(I16
I13
tp1185
(F-18.583642777777776
F24.974965277777777
tp1186
s(I19
I8
tp1187
(F-11.737805277777777
F40.12403472222222
tp1188
s(I41
I27
tp1189
(F57.053318888888889
F-11.536959166666666
tp1190
s(I22
I23
tp1191
(F-1.2736588888888889
F-1.2733444444444444
tp1192
s(I5
I37
tp1193
g9
s(I44
I0
tp1194
g9
s(I9
I34
tp1195
(F-44.272234722222223
F-30.737868611111111
tp1196
s(I34
I42
tp1197
g9
s(I17
I34
tp1198
(F-16.522881111111111
F-30.737868611111111
tp1199
s(I23
I12
tp1200
(F1.4397622222222222
F27.818139166666665
tp1201
s(I10
I3
tp1202
g9
s(I35
I25
tp1203
(F33.98784361111111
F-6.3793702777777774
tp1204
s(I0
I21
tp1205
g9
s(I38
I6
tp1206
g9
s(I25
I19
tp1207
(F6.4583147222222221
F8.9490180555555554
tp1208
s(I1
I10
tp1209
g9
s(I39
I29
tp1210
(F49.995438888888891
F-16.791447222222224
tp1211
s(I4
I1
tp1212
g9
s(I29
I7
tp1213
(F23.486974166666666
F43.542219166666662
tp1214
s(I16
I4
tp1215
(F-30.501753055555554
F55.307869444444442
tp1216
s(I19
I17
tp1217
(F-9.2314052777777782
F14.149004444444444
tp1218
s(I2
I43
tp1219
g9
s(I41
I28
tp1220
(F57.988974722222224
F-14.149004444444444
tp1221
s(I9
I43
tp1222
g9
s(I34
I37
tp1223
(F41.945538611111111
F-40.12403472222222
tp1224
s(I17
I27
tp1225
(F-14.447043055555556
F-11.536959166666666
tp1226
s(I37
I40
tp1227
g9
s(I42
I37
tp1228
g9
s(I23
I5
tp1229
(F2.0261338888888889
F51.057558611111105
tp1230
s(I10
I10
tp1231
(F-41.924679999999995
F33.748988611111109
tp1232
s(I35
I30
tp1233
(F36.104204722222221
F-19.471220555555554
tp1234
s(I25
I20
tp1235
(F6.4192841666666673
F6.3793702777777774
tp1236
s(I11
I25
tp1237
(F-30.950385833333332
F-6.3793702777777774
tp1238
s(I1
I3
tp1239
g9
s(I39
I26
tp1240
(F47.933704722222217
F-8.9490180555555554
tp1241
s(I4
I8
tp1242
g9
s(I29
I0
tp1243
g9
s(I19
I22
tp1244
(F-8.9512466666666661
F1.2733444444444444
tp1245
s(I2
I34
tp1246
g9
s(I41
I5
tp1247
g9
s(I22
I33
tp1248
(F-1.4397622222222222
F-27.818139166666665
tp1249
s(I5
I23
tp1250
(F-51.075074722222226
F-1.2733444444444444
tp1251
s(I9
I44
tp1252
g9
s(I30
I33
tp1253
(F22.141123888888888
F-27.818139166666665
tp1254
s(I17
I28
tp1255
(F-14.601345833333333
F-14.149004444444444
tp1256
s(I42
I44
tp1257
g9
s(I23
I2
tp1258
(F3.0906800000000003
F65.659353333333343
tp1259
s(I32
I10
tp1260
(F30.5171575
F33.748988611111109
tp1261
s(I13
I40
tp1262
(F-42.20238638888889
F-51.057558611111105
tp1263
s(I35
I7
tp1264
(F50.033859722222218
F43.542219166666662
tp1265
s(I25
I29
tp1266
(F6.6647441666666669
F-16.791447222222224
tp1267
s(I11
I30
tp1268
(F-32.827746111111118
F-19.471220555555554
tp1269
s(I1
I4
tp1270
g9
s(I39
I19
tp1271
(F47.933704722222217
F8.9490180555555554
tp1272
s(I26
I4
tp1273
(F15.860974166666667
F55.307869444444442
tp1274
s(I29
I25
tp1275
(F16.899200277777776
F-6.3793702777777774
tp1276
s(I19
I31
tp1277
(F-9.6718674999999994
F-22.196100833333333
tp1278
s(I41
I14
tp1279
(F62.626534722222225
F22.196100833333333
tp1280
s(I5
I16
tp1281
(F-54.332765833333333
F16.791447222222224
tp1282
s(I30
I40
tp1283
(F32.027760000000001
F-51.057558611111105
tp1284
s(I17
I21
tp1285
(F-14.181211666666666
F3.8225536111111107
tp1286
s(I20
I6
tp1287
(F-9.4060486111111121
F47.166571944444442
tp1288
s(I42
I23
tp1289
(F60.098159722222228
F-1.2733444444444444
tp1290
s(I23
I27
tp1291
(F1.299606111111111
F-11.536959166666666
tp1292
s(I32
I1
tp1293
g9
s(I13
I33
tp1294
(F-28.515270277777777
F-27.818139166666665
tp1295
s(I35
I12
tp1296
(F38.913663888888884
F27.818139166666665
tp1297
s(I18
I44
tp1298
(F-42.718780555555554
F-72.853789999999989
tp1299
s(I38
I43
tp1300
g9
s(I11
I23
tp1301
(F-30.746284722222224
F-1.2733444444444444
tp1302
s(I14
I0
tp1303
g9
s(I36
I21
tp1304
(F36.965770277777779
F3.8225536111111107
tp1305
s(I1
I29
tp1306
(F-86.479080833333342
F-16.791447222222224
tp1307
s(I39
I8
tp1308
(F73.545104166666661
F40.12403472222222
tp1309
s(I26
I15
tp1310
(F9.4967455555555542
F19.471220555555554
tp1311
s(I29
I18
tp1312
(F17.14830222222222
F11.536959166666666
tp1313
s(I15
I35
tp1314
(F-23.633945000000001
F-33.748988611111109
tp1315
s(I19
I36
tp1316
(F-11.212271388888889
F-36.86989777777778
tp1317
s(I5
I25
tp1318
(F-51.501439166666664
F-6.3793702777777774
tp1319
s(I27
I36
tp1320
(F14.477512222222222
F-36.86989777777778
tp1321
s(I30
I19
tp1322
(F19.721039444444443
F8.9490180555555554
tp1323
s(I17
I14
tp1324
(F-15.308043055555556
F22.196100833333333
tp1325
s(I20
I13
tp1326
(F-7.040597222222222
F24.974965277777777
tp1327
s(I42
I30
tp1328
(F66.815054444444442
F-19.471220555555554
tp1329
s(I23
I16
tp1330
(F1.3300644444444445
F16.791447222222224
tp1331
s(I6
I40
tp1332
g9
s(I10
I39
tp1333
(F-54.80056305555555
F-47.166571944444442
tp1334
s(I32
I24
tp1335
(F25.034482500000003
F-3.8225536111111107
tp1336
s(I18
I39
tp1337
(F-17.108025555555557
F-47.166571944444442
tp1338
s(I38
I34
tp1339
(F53.272232500000001
F-30.737868611111111
tp1340
s(I8
I17
tp1341
(F-41.652137222222223
F14.149004444444444
tp1342
s(I11
I12
tp1343
(F-35.302746388888885
F27.818139166666665
tp1344
s(I14
I11
tp1345
(F-26.073548611111111
F30.737868611111111
tp1346
s(I36
I28
tp1347
(F38.226477222222222
F-14.149004444444444
tp1348
s(I1
I22
tp1349
(F-72.899720833333333
F1.2733444444444444
tp1350
s(I39
I1
tp1351
g9
s(I26
I22
tp1352
(F8.9512466666666661
F1.2733444444444444
tp1353
s(I15
I40
tp1354
(F-32.027760000000001
F-51.057558611111105
tp1355
s(I2
I15
tp1356
(F-75.100710555555551
F19.471220555555554
tp1357
s(I24
I32
tp1358
(F4.2175427777777781
F-24.974965277777777
tp1359
s(I5
I2
tp1360
g9
s(I30
I26
tp1361
(F19.721039444444443
F-8.9490180555555554
tp1362
s(I17
I7
tp1363
(F-19.707995555555556
F43.542219166666662
tp1364
s(I20
I20
tp1365
(F-6.4192841666666673
F6.3793702777777774
tp1366
s(I42
I25
tp1367
(F60.699676666666662
F-6.3793702777777774
tp1368
s(I23
I41
tp1369
(F2.2375930555555557
F-55.307869444444442
tp1370
s(I6
I35
tp1371
(F-61.879963611111108
F-33.748988611111109
tp1372
s(I32
I31
tp1373
(F27.130233888888888
F-22.196100833333333
tp1374
s(I18
I30
tp1375
(F-12.247324166666665
F-19.471220555555554
tp1376
s(I38
I37
tp1377
(F64.279156388888893
F-40.12403472222222
tp1378
s(I43
I42
tp1379
g9
s(I8
I24
tp1380
(F-40.231787222222223
F-3.8225536111111107
tp1381
s(I11
I5
tp1382
(F-54.407090833333335
F51.057558611111105
tp1383
s(I14
I18
tp1384
(F-22.678996388888891
F11.536959166666666
tp1385
s(I36
I27
tp1386
(F37.761243888888892
F-11.536959166666666
tp1387
s(I26
I17
tp1388
(F9.2314052777777782
F14.149004444444444
tp1389
s(I12
I28
tp1390
(F-28.768165555555555
F-14.149004444444444
tp1391
s(I2
I6
tp1392
g9
s(I24
I39
tp1393
(F5.6273563888888898
F-47.166571944444442
tp1394
s(I5
I11
tp1395
(F-64.810283611111103
F30.737868611111111
tp1396
s(I30
I29
tp1397
(F20.375960277777779
F-16.791447222222224
tp1398
s(I20
I19
tp1399
(F-6.4583147222222221
F8.9490180555555554
tp1400
s(I42
I0
tp1401
g9
s(I23
I38
tp1402
(F1.7567900000000001
F-43.542219166666662
tp1403
s(I6
I26
tp1404
(F-47.933704722222217
F-8.9490180555555554
tp1405
s(I10
I41
tp1406
(F-77.44453138888889
F-55.307869444444442
tp1407
s(I32
I22
tp1408
(F24.981557499999997
F1.2733444444444444
tp1409
s(I31
I38
tp1410
(F31.410660833333331
F-43.542219166666662
tp1411
s(I35
I35
tp1412
(F41.924679999999995
F-33.748988611111109
tp1413
s(I18
I25
tp1414
(F-11.609838055555555
F-6.3793702777777774
tp1415
s(I43
I35
tp1416
g9
s(I8
I31
tp1417
(F-44.108735277777782
F-22.196100833333333
tp1418
s(I33
I9
tp1419
(F35.685334722222215
F36.86989777777778
tp1420
s(I14
I21
tp1421
(F-22.248234166666666
F3.8225536111111107
tp1422
s(I36
I2
tp1423
g9
s(I26
I24
tp1424
(F8.9691358333333326
F-3.8225536111111107
tp1425
s(I12
I27
tp1426
(F-28.44335361111111
F-11.536959166666666
tp1427
s(I2
I1
tp1428
g9
s(I27
I11
tp1429
(F13.455463333333332
F30.737868611111111
tp1430
s(I30
I4
tp1431
(F35.849036388888891
F55.307869444444442
tp1432
s(I20
I26
tp1433
(F-6.4583147222222221
F-8.9490180555555554
tp1434
s(I3
I34
tp1435
g9
s(I42
I11
tp1436
g9
s(I6
I29
tp1437
(F-49.995438888888891
F-16.791447222222224
tp1438
s(I28
I42
tp1439
(F29.339197499999997
F-60.073565000000002
tp1440
s(I35
I40
tp1441
(F62.114433055555558
F-51.057558611111105
tp1442
s(I18
I16
tp1443
(F-12.058322222222223
F16.791447222222224
tp1444
s(I21
I5
tp1445
(F-6.0885877777777777
F51.057558611111105
tp1446
s(I43
I24
tp1447
(F65.943310277777783
F-3.8225536111111107
tp1448
s(I8
I6
tp1449
(F-71.422690833333334
F47.166571944444442
tp1450
s(I33
I2
tp1451
g9
s(I14
I28
tp1452
(F-22.929417222222224
F-14.149004444444444
tp1453
s(I36
I9
tp1454
(F48.590377777777782
F36.86989777777778
tp1455
s(I39
I44
tp1456
g9
s(I12
I18
tp1457
(F-28.44335361111111
F11.536959166666666
tp1458
s(I15
I7
tp1459
(F-27.377719444444445
F43.542219166666662
tp1460
s(I37
I22
tp1461
(F40.135963055555557
F1.2733444444444444
tp1462
s(I2
I24
tp1463
(F-65.943310277777783
F-3.8225536111111107
tp1464
s(I27
I0
tp1465
g9
s(I30
I15
tp1466
(F20.704811111111109
F19.471220555555554
tp1467
s(I20
I33
tp1468
(F-7.2171230555555557
F-27.818139166666665
tp1469
s(I3
I43
tp1470
g9
s(I6
I20
tp1471
(F-47.553040277777775
F6.3793702777777774
tp1472
s(I28
I33
tp1473
(F16.044591944444445
F-27.818139166666665
tp1474
s(I32
I36
tp1475
(F31.855430833333333
F-36.86989777777778
tp1476
s(I31
I20
tp1477
(F22.341831666666664
F6.3793702777777774
tp1478
s(I18
I11
tp1479
(F-13.455463333333332
F30.737868611111111
tp1480
s(I40
I36
tp1481
(F76.463797222222226
F-36.86989777777778
tp1482
s(I21
I14
tp1483
(F-4.1290011111111111
F22.196100833333333
tp1484
s(I43
I17
tp1485
(F69.987161388888893
F14.149004444444444
tp1486
s(I8
I13
tp1487
(F-45.309899166666661
F24.974965277777777
tp1488
s(I11
I40
tp1489
(F-54.407090833333335
F-51.057558611111105
tp1490
s(I33
I27
tp1491
(F28.44335361111111
F-11.536959166666666
tp1492
s(I39
I37
tp1493
(F73.545104166666661
F-40.12403472222222
tp1494
s(I9
I18
tp1495
(F-37.761243888888892
F11.536959166666666
tp1496
s(I12
I9
tp1497
(F-35.685334722222215
F36.86989777777778
tp1498
s(I15
I12
tp1499
(F-22.141123888888888
F27.818139166666665
tp1500
s(I37
I31
tp1501
(F44.108735277777782
F-22.196100833333333
tp1502
s(I2
I19
tp1503
(F-67.270400555555554
F8.9490180555555554
tp1504
s(I27
I25
tp1505
(F11.609838055555555
F-6.3793702777777774
tp1506
s(I0
I37
tp1507
g9
s(I20
I40
tp1508
(F-10.182067499999999
F-51.057558611111105
tp1509
s(I3
I16
tp1510
(F-64.858967222222219
F16.791447222222224
tp1511
s(I25
I35
tp1512
(F7.6794427777777781
F-33.748988611111109
tp1513
s(I6
I15
tp1514
(F-51.061176111111109
F19.471220555555554
tp1515
s(I31
I29
tp1516
(F23.241191111111114
F-16.791447222222224
tp1517
s(I18
I2
tp1518
(F-29.028687777777776
F65.659353333333343
tp1519
s(I40
I43
tp1520
g9
s(I21
I23
tp1521
(F-3.8234994444444443
F-1.2733444444444444
tp1522
s(I43
I22
tp1523
(F65.690656944444441
F1.2733444444444444
tp1524
s(I7
I36
tp1525
(F-59.441568333333329
F-36.86989777777778
tp1526
s(I11
I33
tp1527
(F-35.302746388888885
F-27.818139166666665
tp1528
s(I33
I28
tp1529
(F28.768165555555555
F-14.149004444444444
tp1530
s(I39
I34
tp1531
(F58.560860277777778
F-30.737868611111111
tp1532
s(I9
I27
tp1533
(F-37.761243888888892
F-11.536959166666666
tp1534
s(I12
I0
tp1535
g9
s(I15
I21
tp1536
(F-19.516393333333333
F3.8225536111111107
tp1537
s(I37
I24
tp1538
(F40.231787222222223
F-3.8225536111111107
tp1539
s(I24
I3
tp1540
(F7.6794427777777781
F60.073565000000002
tp1541
s(I27
I30
tp1542
(F12.247324166666665
F-19.471220555555554
tp1543
s(I13
I31
tp1544
(F-27.130233888888888
F-22.196100833333333
tp1545
s(I3
I25
tp1546
(F-60.699676666666662
F-6.3793702777777774
tp1547
s(I25
I36
tp1548
(F7.9835561111111115
F-36.86989777777778
tp1549
s(I6
I6
tp1550
g9
s(I31
I26
tp1551
(F22.484475
F-8.9490180555555554
tp1552
s(I40
I18
tp1553
(F52.543577777777777
F11.536959166666666
tp1554
s(I21
I16
tp1555
(F-3.9930663888888889
F16.791447222222224
tp1556
s(I43
I15
tp1557
(F75.100710555555551
F19.471220555555554
tp1558
s(I7
I29
tp1559
(F-46.018943611111112
F-16.791447222222224
tp1560
s(I11
I38
tp1561
(F-44.838450833333333
F-43.542219166666662
tp1562
s(I33
I21
tp1563
(F27.885566944444445
F3.8225536111111107
tp1564
s(I16
I43
tp1565
(F-44.500302222222224
F-65.659353333333343
tp1566
s(I36
I38
tp1567
(F55.867083333333333
F-43.542219166666662
tp1568
s(I44
I38
tp1569
g9
s(I9
I28
tp1570
(F-38.226477222222222
F-14.149004444444444
tp1571
s(I34
I12
tp1572
(F35.302746388888885
F27.818139166666665
tp1573
s(I15
I18
tp1574
(F-19.889480555555554
F11.536959166666666
tp1575
s(I37
I1
tp1576
g9
s(I24
I10
tp1577
(F4.5988186111111107
F33.748988611111109
tp1578
s(I27
I23
tp1579
(F11.539847777777778
F-1.2733444444444444
tp1580
s(I13
I24
tp1581
(F-25.034482500000003
F-3.8225536111111107
tp1582
s(I3
I30
tp1583
(F-66.815054444444442
F-19.471220555555554
tp1584
s(I28
I14
tp1585
(F15.308043055555556
F22.196100833333333
tp1586
s(I31
I3
tp1587
(F49.221499166666668
F60.073565000000002
tp1588
s(I40
I25
tp1589
(F51.501439166666664
F-6.3793702777777774
tp1590
s(I21
I25
tp1591
(F-3.8464061111111114
F-6.3793702777777774
tp1592
s(I4
I39
tp1593
g9
s(I43
I4
tp1594
g9
s(I8
I34
tp1595
(F-48.571077777777781
F-30.737868611111111
tp1596
s(I7
I26
tp1597
(F-44.217014722222224
F-8.9490180555555554
tp1598
s(I29
I41
tp1599
(F30.501753055555554
F-55.307869444444442
tp1600
s(I16
I34
tp1601
(F-19.639868055555556
F-30.737868611111111
tp1602
s(I22
I8
tp1603
(F-1.6653591666666665
F40.12403472222222
tp1604
s(I44
I29
tp1605
(F86.479080833333342
F-16.791447222222224
tp1606
s(I9
I5
tp1607
(F-72.667921111111113
F51.057558611111105
tp1608
s(I34
I7
tp1609
(F44.838450833333333
F43.542219166666662
tp1610
s(I15
I27
tp1611
(F-19.889480555555554
F-11.536959166666666
tp1612
s(I37
I10
tp1613
(F50.810255277777777
F33.748988611111109
tp1614
s(I24
I17
tp1615
(F3.942331666666667
F14.149004444444444
tp1616
s(I13
I17
tp1617
(F-25.812772222222222
F14.149004444444444
tp1618
s(I0
I10
tp1619
g9
s(I38
I27
tp1620
(F44.675788611111109
F-11.536959166666666
tp1621
s(I3
I7
tp1622
g9
s(I28
I5
tp1623
(F22.886614444444444
F51.057558611111105
tp1624
s(I31
I8
tp1625
(F29.607288055555557
F40.12403472222222
tp1626
s(I40
I0
tp1627
g9
s(I21
I34
tp1628
(F-4.4485094444444444
F-30.737868611111111
tp1629
s(I8
I41
tp1630
g9
s(I7
I19
tp1631
(F-44.217014722222224
F8.9490180555555554
tp1632
s(I29
I34
tp1633
(F19.639868055555556
F-30.737868611111111
tp1634
s(I33
I39
tp1635
(F43.346318888888888
F-47.166571944444442
tp1636
s(I16
I25
tp1637
(F-16.899200277777776
F-6.3793702777777774
tp1638
s(I41
I39
tp1639
g9
s(I22
I3
tp1640
(F-2.5530016666666664
F60.073565000000002
tp1641
s(I44
I20
tp1642
(F74.051535000000001
F6.3793702777777774
tp1643
s(I9
I14
tp1644
(F-40.392539722222224
F22.196100833333333
tp1645
s(I34
I30
tp1646
(F32.827746111111118
F-19.471220555555554
tp1647
s(I24
I24
tp1648
(F3.8310894444444443
F-3.8225536111111107
tp1649
s(I10
I23
tp1650
(F-33.758445000000002
F-1.2733444444444444
tp1651
s(I13
I10
tp1652
(F-30.5171575
F33.748988611111109
tp1653
s(I0
I1
tp1654
g9
s(I38
I18
tp1655
(F44.675788611111109
F11.536959166666666
tp1656
s(I3
I12
tp1657
(F-78.496311944444443
F27.818139166666665
tp1658
s(I28
I28
tp1659
(F14.601345833333333
F-14.149004444444444
tp1660
s(I1
I38
tp1661
g9
s(I40
I7
tp1662
g9
s(I21
I43
tp1663
(F-9.3084383333333349
F-65.659353333333343
tp1664
s(I4
I21
tp1665
(F-55.492849722222225
F3.8225536111111107
tp1666
s(I26
I38
tp1667
(F12.391988888888889
F-43.542219166666662
tp1668
s(I7
I8
tp1669
(F-64.279156388888893
F40.12403472222222
tp1670
s(I16
I16
tp1671
(F-17.563038611111111
F16.791447222222224
tp1672
s(I41
I40
tp1673
g9
s(I22
I26
tp1674
(F-1.2890383333333333
F-8.9490180555555554
tp1675
s(I44
I19
tp1676
(F75.31422666666667
F8.9490180555555554
tp1677
s(I12
I36
tp1678
(F-35.685334722222215
F-36.86989777777778
tp1679
s(I34
I25
tp1680
(F30.950385833333332
F-6.3793702777777774
tp1681
s(I24
I31
tp1682
(F4.1290011111111111
F-22.196100833333333
tp1683
s(I10
I30
tp1684
(F-36.104204722222221
F-19.471220555555554
tp1685
s(I13
I3
tp1686
(F-57.814421666666661
F60.073565000000002
tp1687
s(I0
I24
tp1688
g9
s(I38
I21
tp1689
(F43.663750833333332
F3.8225536111111107
tp1690
s(I25
I0
tp1691
g9
s(I28
I27
tp1692
(F14.447043055555556
F-11.536959166666666
tp1693
s(I14
I34
tp1694
(F-26.073548611111111
F-30.737868611111111
tp1695
s(I40
I14
tp1696
(F57.142958333333333
F22.196100833333333
tp1697
s(I4
I28
tp1698
(F-57.988974722222224
F-14.149004444444444
tp1699
s(I26
I33
tp1700
(F10.129966944444446
F-27.818139166666665
tp1701
s(I7
I1
tp1702
g9
s(I16
I23
tp1703
(F-16.795717777777778
F-1.2733444444444444
tp1704
s(I19
I2
tp1705
(F-22.17363527777778
F65.659353333333343
tp1706
s(I41
I17
tp1707
(F57.988974722222224
F14.149004444444444
tp1708
s(I22
I29
tp1709
(F-1.3300644444444445
F-16.791447222222224
tp1710
s(I44
I10
tp1711
g9
s(I12
I35
tp1712
(F-34.142191388888889
F-33.748988611111109
tp1713
s(I34
I16
tp1714
(F32.267587777777777
F16.791447222222224
tp1715
s(I17
I40
tp1716
(F-22.886614444444444
F-51.057558611111105
tp1717
s(I37
I37
tp1718
(F57.436493055555552
F-40.12403472222222
tp1719
s(I10
I25
tp1720
(F-33.98784361111111
F-6.3793702777777774
tp1721
s(I35
I19
tp1722
(F34.222046944444443
F8.9490180555555554
tp1723
s(I0
I31
tp1724
g9
s(I38
I12
tp1725
(F51.160363888888888
F27.818139166666665
tp1726
s(I25
I9
tp1727
(F7.9835561111111115
F36.86989777777778
tp1728
s(I28
I18
tp1729
(F14.447043055555556
F11.536959166666666
tp1730
s(I14
I37
tp1731
(F-29.607288055555557
F-40.12403472222222
tp1732
s(I4
I27
tp1733
(F-57.053318888888889
F-11.536959166666666
tp1734
s(I26
I40
tp1735
(F14.328877499999999
F-51.057558611111105
tp1736
s(I29
I13
tp1737
(F18.583642777777776
F24.974965277777777
tp1738
s(I16
I14
tp1739
(F-18.180403333333334
F22.196100833333333
tp1740
s(I19
I11
tp1741
(F-10.426887499999999
F30.737868611111111
tp1742
s(I41
I26
tp1743
(F56.341351944444447
F-8.9490180555555554
tp1744
s(I22
I20
tp1745
(F-1.2812794444444444
F6.3793702777777774
tp1746
s(I5
I36
tp1747
(F-76.463797222222226
F-36.86989777777778
tp1748
s(I44
I1
tp1749
g9
s(I9
I33
tp1750
(F-42.718780555555554
F-27.818139166666665
tp1751
s(I34
I43
tp1752
g9
s(I17
I33
tp1753
(F-16.044591944444445
F-27.818139166666665
tp1754
s(I23
I15
tp1755
(F1.3505994444444445
F19.471220555555554
tp1756
s(I10
I0
tp1757
g9
s(I35
I24
tp1758
(F33.834387777777778
F-3.8225536111111107
tp1759
s(I0
I22
tp1760
g9
s(I38
I7
tp1761
(F71.872401944444434
F43.542219166666662
tp1762
s(I25
I18
tp1763
(F6.5114808333333336
F11.536959166666666
tp1764
s(I14
I44
tp1765
g9
s(I1
I9
tp1766
g9
s(I39
I28
tp1767
(F49.137011944444446
F-14.149004444444444
tp1768
s(I4
I2
tp1769
g9
s(I29
I6
tp1770
(F25.145491666666665
F47.166571944444442
tp1771
s(I16
I5
tp1772
(F-27.362551388888889
F51.057558611111105
tp1773
s(I19
I16
tp1774
(F-9.3510722222222213
F16.791447222222224
tp1775
s(I2
I40
tp1776
g9
s(I41
I3
tp1777
g9
s(I9
I42
tp1778
g9
s(I34
I34
tp1779
(F36.487745555555556
F-30.737868611111111
tp1780
s(I17
I26
tp1781
(F-14.327063611111111
F-8.9490180555555554
tp1782
s(I42
I34
tp1783
g9
s(I23
I4
tp1784
(F2.2375930555555557
F55.307869444444442
tp1785
s(I10
I11
tp1786
(F-40.267691111111112
F30.737868611111111
tp1787
s(I35
I1
tp1788
g9
s(I25
I27
tp1789
(F6.5114808333333336
F-11.536959166666666
tp1790
s(I11
I24
tp1791
(F-30.813865277777779
F-3.8225536111111107
tp1792
s(I1
I2
tp1793
g9
s(I39
I21
tp1794
(F47.304547222222219
F3.8225536111111107
tp1795
s(I4
I9
tp1796
g9
s(I29
I31
tp1797
(F18.180403333333334
F-22.196100833333333
tp1798
s(I19
I25
tp1799
(F-9.0052380555555551
F-6.3793702777777774
tp1800
s(I2
I35
tp1801
g9
s(I41
I4
tp1802
g9
s(I22
I38
tp1803
(F-1.7567900000000001
F-43.542219166666662
tp1804
s(I5
I22
tp1805
(F-51.075074722222226
F1.2733444444444444
tp1806
s(I27
I41
tp1807
(F20.57241638888889
F-55.307869444444442
tp1808
s(I30
I38
tp1809
(F27.377719444444445
F-43.542219166666662
tp1810
s(I17
I19
tp1811
(F-14.327063611111111
F8.9490180555555554
tp1812
s(I23
I29
tp1813
(F1.3300644444444445
F-16.791447222222224
tp1814
s(I32
I11
tp1815
(F29.421675555555556
F30.737868611111111
tp1816
s(I13
I39
tp1817
(F-38.391713333333335
F-47.166571944444442
tp1818
s(I35
I6
tp1819
(F54.80056305555555
F47.166571944444442
tp1820
s(I25
I28
tp1821
(F6.5798224999999997
F-14.149004444444444
tp1822
s(I11
I17
tp1823
(F-31.809832500000002
F14.149004444444444
tp1824
s(I1
I27
tp1825
(F-77.228595555555557
F-11.536959166666666
tp1826
s(I39
I18
tp1827
(F48.456739166666672
F11.536959166666666
tp1828
s(I26
I5
tp1829
(F14.328877499999999
F51.057558611111105
tp1830
s(I29
I24
tp1831
(F16.830000277777778
F-3.8225536111111107
tp1832
s(I15
I37
tp1833
(F-25.844399722222221
F-40.12403472222222
tp1834
s(I19
I30
tp1835
(F-9.4967455555555542
F-19.471220555555554
tp1836
s(I41
I13
tp1837
(F65.099062500000002
F24.974965277777777
tp1838
s(I5
I31
tp1839
(F-57.142958333333333
F-22.196100833333333
tp1840
s(I30
I41
tp1841
(F35.849036388888891
F-55.307869444444442
tp1842
s(I17
I20
tp1843
(F-14.239015833333333
F6.3793702777777774
tp1844
s(I20
I7
tp1845
(F-8.8173358333333329
F43.542219166666662
tp1846
s(I42
I20
tp1847
(F60.699676666666662
F6.3793702777777774
tp1848
s(I23
I26
tp1849
(F1.2890383333333333
F-8.9490180555555554
tp1850
s(I32
I2
tp1851
g9
s(I13
I32
tp1852
(F-27.760443333333335
F-24.974965277777777
tp1853
s(I35
I15
tp1854
(F36.104204722222221
F19.471220555555554
tp1855
s(I38
I40
tp1856
g9
s(I11
I22
tp1857
(F-30.746284722222224
F1.2733444444444444
tp1858
s(I14
I1
tp1859
g9
s(I36
I22
tp1860
(F36.880512777777781
F1.2733444444444444
tp1861
s(I1
I28
tp1862
(F-80.214480555555554
F-14.149004444444444
tp1863
s(I39
I11
tp1864
(F58.560860277777778
F30.737868611111111
tp1865
s(I26
I12
tp1866
(F10.129966944444446
F27.818139166666665
tp1867
s(I29
I17
tp1868
(F17.333137222222224
F14.149004444444444
tp1869
s(I15
I34
tp1870
(F-22.818658055555556
F-30.737868611111111
tp1871
s(I19
I39
tp1872
(F-13.226560000000001
F-47.166571944444442
tp1873
s(I5
I24
tp1874
(F-51.215912222222222
F-3.8225536111111107
tp1875
s(I27
I39
tp1876
(F17.108025555555557
F-47.166571944444442
tp1877
s(I30
I16
tp1878
(F20.375960277777779
F16.791447222222224
tp1879
s(I17
I13
tp1880
(F-15.644017222222221
F24.974965277777777
tp1881
s(I20
I14
tp1882
(F-6.8923241666666666
F22.196100833333333
tp1883
s(I42
I31
tp1884
(F69.395183333333335
F-22.196100833333333
tp1885
s(I23
I19
tp1886
(F1.2890383333333333
F8.9490180555555554
tp1887
s(I6
I41
tp1888
g9
s(I10
I36
tp1889
(F-43.982963055555558
F-36.86989777777778
tp1890
s(I32
I25
tp1891
(F25.14135388888889
F-6.3793702777777774
tp1892
s(I18
I36
tp1893
(F-14.477512222222222
F-36.86989777777778
tp1894
s(I38
I35
tp1895
(F55.945966388888884
F-33.748988611111109
tp1896
s(I8
I18
tp1897
(F-41.127233888888888
F11.536959166666666
tp1898
s(I11
I15
tp1899
(F-32.827746111111118
F19.471220555555554
tp1900
s(I14
I8
tp1901
(F-29.607288055555557
F40.12403472222222
tp1902
s(I36
I29
tp1903
(F38.8086725
F-16.791447222222224
tp1904
s(I1
I21
tp1905
(F-73.27282944444444
F3.8225536111111107
tp1906
s(I39
I0
tp1907
g9
s(I26
I23
tp1908
(F8.9512466666666661
F-1.2733444444444444
tp1909
s(I15
I43
tp1910
(F-53.973573055555555
F-65.659353333333343
tp1911
s(I19
I44
tp1912
(F-31.846464722222223
F-72.853789999999989
tp1913
s(I2
I12
tp1914
g9
s(I24
I33
tp1915
(F4.3229322222222217
F-27.818139166666665
tp1916
s(I5
I1
tp1917
g9
s(I30
I27
tp1918
(F19.889480555555554
F-11.536959166666666
tp1919
s(I17
I6
tp1920
(F-21.072332222222222
F47.166571944444442
tp1921
s(I20
I21
tp1922
(F-6.3936533333333339
F3.8225536111111107
tp1923
s(I42
I6
tp1924
g9
s(I23
I40
tp1925
(F2.0261338888888889
F-51.057558611111105
tp1926
s(I6
I32
tp1927
(F-53.996302222222226
F-24.974965277777777
tp1928
s(I32
I16
tp1929
(F26.169389722222224
F16.791447222222224
tp1930
s(I18
I31
tp1931
(F-12.474607222222222
F-22.196100833333333
tp1932
s(I8
I25
tp1933
(F-40.425571388888883
F-6.3793702777777774
tp1934
s(I11
I4
tp1935
(F-63.896295833333333
F55.307869444444442
tp1936
s(I14
I19
tp1937
(F-22.484475
F8.9490180555555554
tp1938
s(I36
I4
tp1939
g9
s(I26
I30
tp1940
(F9.4967455555555542
F-19.471220555555554
tp1941
s(I12
I29
tp1942
(F-29.173131944444446
F-16.791447222222224
tp1943
s(I2
I7
tp1944
g9
s(I24
I40
tp1945
(F6.0885877777777777
F-51.057558611111105
tp1946
s(I5
I10
tp1947
(F-69.295188888888887
F33.748988611111109
tp1948
s(I30
I2
tp1949
(F53.973573055555555
F65.659353333333343
tp1950
s(I20
I28
tp1951
(F-6.5798224999999997
F-14.149004444444444
tp1952
s(I42
I1
tp1953
g9
s(I23
I33
tp1954
(F1.4397622222222222
F-27.818139166666665
tp1955
s(I6
I27
tp1956
(F-48.456739166666672
F-11.536959166666666
tp1957
s(I28
I44
tp1958
(F56.01215638888889
F-72.853789999999989
tp1959
s(I32
I23
tp1960
(F24.981557499999997
F-1.2733444444444444
tp1961
s(I31
I33
tp1962
(F25.286261666666668
F-27.818139166666665
tp1963
s(I35
I34
tp1964
(F40.267691111111112
F-30.737868611111111
tp1965
s(I18
I22
tp1966
(F-11.539847777777778
F1.2733444444444444
tp1967
s(I43
I34
tp1968
g9
s(I8
I0
tp1969
g9
s(I33
I8
tp1970
(F37.611205555555557
F40.12403472222222
tp1971
s(I14
I26
tp1972
(F-22.484475
F-8.9490180555555554
tp1973
s(I36
I3
tp1974
g9
s(I26
I25
tp1975
(F9.0052380555555551
F-6.3793702777777774
tp1976
s(I12
I20
tp1977
(F-28.006665277777778
F6.3793702777777774
tp1978
s(I2
I30
tp1979
(F-75.100710555555551
F-19.471220555555554
tp1980
s(I27
I10
tp1981
(F13.918125555555555
F33.748988611111109
tp1982
s(I30
I5
tp1983
(F32.027760000000001
F51.057558611111105
tp1984
s(I0
I40
tp1985
g9
s(I20
I27
tp1986
(F-6.5114808333333336
F-11.536959166666666
tp1987
s(I3
I37
tp1988
g9
s(I42
I8
tp1989
g9
s(I6
I18
tp1990
(F-48.456739166666672
F11.536959166666666
tp1991
s(I28
I43
tp1992
(F36.375898333333332
F-65.659353333333343
tp1993
s(I35
I43
tp1994
g9
s(I18
I17
tp1995
(F-11.903101944444444
F14.149004444444444
tp1996
s(I21
I4
tp1997
(F-6.726514166666667
F55.307869444444442
tp1998
s(I43
I27
tp1999
(F68.419058333333339
F-11.536959166666666
tp2000
s(I8
I7
tp2001
(F-62.754367500000001
F43.542219166666662
tp2002
s(I33
I1
tp2003
g9
s(I14
I29
tp2004
(F-23.241191111111114
F-16.791447222222224
tp2005
s(I36
I10
tp2006
(F46.187180833333329
F33.748988611111109
tp2007
s(I12
I19
tp2008
(F-28.191325555555554
F8.9490180555555554
tp2009
s(I15
I6
tp2010
(F-29.35966638888889
F47.166571944444442
tp2011
s(I37
I21
tp2012
(F40.231787222222223
F3.8225536111111107
tp2013
s(I2
I25
tp2014
(F-66.460918055555553
F-6.3793702777777774
tp2015
s(I27
I3
tp2016
(F23.633945000000001
F60.073565000000002
tp2017
s(I30
I12
tp2018
(F22.141123888888888
F27.818139166666665
tp2019
s(I20
I34
tp2020
(F-7.4275216666666672
F-30.737868611111111
tp2021
s(I3
I42
tp2022
g9
s(I6
I21
tp2023
(F-47.304547222222219
F3.8225536111111107
tp2024
s(I28
I34
tp2025
(F16.522881111111111
F-30.737868611111111
tp2026
s(I32
I37
tp2027
(F33.516443611111114
F-40.12403472222222
tp2028
s(I31
I23
tp2029
(F22.201875277777777
F-1.2733444444444444
tp2030
s(I18
I8
tp2031
(F-15.162480277777778
F40.12403472222222
tp2032
s(I40
I37
tp2033
g9
s(I21
I13
tp2034
(F-4.2175427777777781
F24.974965277777777
tp2035
s(I43
I16
tp2036
(F72.117569444444442
F16.791447222222224
tp2037
s(I8
I14
tp2038
(F-44.108735277777782
F22.196100833333333
tp2039
s(I11
I43
tp2040
g9
s(I33
I26
tp2041
(F28.191325555555554
F-8.9490180555555554
tp2042
s(I39
I36
tp2043
(F66.443535555555556
F-36.86989777777778
tp2044
s(I9
I17
tp2045
(F-38.226477222222222
F14.149004444444444
tp2046
s(I12
I10
tp2047
(F-34.142191388888889
F33.748988611111109
tp2048
s(I15
I15
tp2049
(F-20.704811111111109
F19.471220555555554
tp2050
s(I37
I30
tp2051
(F43.120623888888886
F-19.471220555555554
tp2052
s(I2
I16
tp2053
(F-72.117569444444442
F16.791447222222224
tp2054
s(I27
I24
tp2055
(F11.563037222222222
F-3.8225536111111107
tp2056
s(I0
I38
tp2057
g9
s(I20
I41
tp2058
(F-11.257412222222221
F-55.307869444444442
tp2059
s(I3
I19
tp2060
(F-61.323908611111115
F8.9490180555555554
tp2061
s(I25
I34
tp2062
(F7.4275216666666672
F-30.737868611111111
tp2063
s(I6
I12
tp2064
(F-56.01215638888889
F27.818139166666665
tp2065
s(I31
I28
tp2066
(F22.929417222222224
F-14.149004444444444
tp2067
s(I18
I3
tp2068
(F-23.633945000000001
F60.073565000000002
tp2069
s(I40
I44
tp2070
g9
s(I21
I22
tp2071
(F-3.8234994444444443
F1.2733444444444444
tp2072
s(I43
I9
tp2073
g9
s(I7
I39
tp2074
g9
s(I11
I32
tp2075
(F-34.321353611111114
F-24.974965277777777
tp2076
s(I33
I19
tp2077
(F28.191325555555554
F8.9490180555555554
tp2078
s(I44
I40
tp2079
g9
s(I9
I26
tp2080
(F-37.401289166666665
F-8.9490180555555554
tp2081
s(I12
I1
tp2082
g9
s(I15
I20
tp2083
(F-19.597483611111109
F6.3793702777777774
tp2084
s(I37
I7
tp2085
(F62.754367500000001
F43.542219166666662
tp2086
s(I24
I4
tp2087
(F6.726514166666667
F55.307869444444442
tp2088
s(I27
I17
tp2089
(F11.903101944444444
F14.149004444444444
tp2090
s(I13
I30
tp2091
(F-26.604819166666669
F-19.471220555555554
tp2092
s(I3
I24
tp2093
(F-60.29624444444444
F-3.8225536111111107
tp2094
s(I25
I43
tp2095
(F15.639390833333334
F-65.659353333333343
tp2096
s(I6
I7
tp2097
g9
s(I31
I5
tp2098
(F36.944473333333328
F51.057558611111105
tp2099
s(I40
I19
tp2100
(F51.939686111111108
F8.9490180555555554
tp2101
s(I21
I31
tp2102
(F-4.1290011111111111
F-22.196100833333333
tp2103
s(I43
I14
tp2104
(F79.747035555555556
F22.196100833333333
tp2105
s(I7
I28
tp2106
(F-45.270834999999998
F-14.149004444444444
tp2107
s(I33
I20
tp2108
(F28.006665277777778
F6.3793702777777774
tp2109
s(I16
I44
tp2110
(F-78.496311944444443
F-72.853789999999989
tp2111
s(I36
I39
tp2112
(F61.9481775
F-47.166571944444442
tp2113
s(I44
I39
tp2114
g9
s(I9
I3
tp2115
g9
s(I34
I13
tp2116
(F34.321353611111114
F24.974965277777777
tp2117
s(I15
I29
tp2118
(F-20.375960277777779
F-16.791447222222224
tp2119
s(I37
I0
tp2120
g9
s(I24
I11
tp2121
(F4.4485094444444444
F30.737868611111111
tp2122
s(I27
I22
tp2123
(F11.539847777777778
F1.2733444444444444
tp2124
s(I13
I23
tp2125
(F-24.981557499999997
F-1.2733444444444444
tp2126
s(I3
I1
tp2127
g9
s(I25
I44
tp2128
(F22.141123888888888
F-72.853789999999989
tp2129
s(I28
I15
tp2130
(F15.026898333333333
F19.471220555555554
tp2131
s(I31
I2
tp2132
(F66.430909444444453
F65.659353333333343
tp2133
s(I1
I43
tp2134
g9
s(I40
I26
tp2135
(F51.939686111111108
F-8.9490180555555554
tp2136
s(I21
I24
tp2137
(F-3.8310894444444443
F-3.8225536111111107
tp2138
s(I4
I32
tp2139
(F-65.099062500000002
F-24.974965277777777
tp2140
s(I43
I7
tp2141
g9
s(I8
I35
tp2142
(F-50.810255277777777
F-33.748988611111109
tp2143
s(I7
I21
tp2144
(F-43.663750833333332
F3.8225536111111107
tp2145
s(I29
I40
tp2146
(F27.362551388888889
F-51.057558611111105
tp2147
s(I16
I35
tp2148
(F-20.330790277777776
F-33.748988611111109
tp2149
s(I22
I9
tp2150
(F-1.5917541666666668
F36.86989777777778
tp2151
s(I44
I30
tp2152
g9
s(I9
I4
tp2153
g9
s(I34
I4
tp2154
(F63.896295833333333
F55.307869444444442
tp2155
s(I15
I26
tp2156
(F-19.721039444444443
F-8.9490180555555554
tp2157
s(I37
I9
tp2158
(F53.663942499999997
F36.86989777777778
tp2159
s(I24
I18
tp2160
(F3.9014983333333331
F11.536959166666666
tp2161
s(I13
I16
tp2162
(F-26.169389722222224
F16.791447222222224
tp2163
s(I0
I11
tp2164
g9
s(I38
I24
tp2165
(F43.663750833333332
F-3.8225536111111107
tp2166
s(I3
I6
tp2167
g9
s(I28
I6
tp2168
(F21.072332222222222
F47.166571944444442
tp2169
s(I31
I11
tp2170
(F26.073548611111111
F30.737868611111111
tp2171
s(I1
I44
tp2172
g9
s(I40
I1
tp2173
g9
s(I21
I33
tp2174
(F-4.3229322222222217
F-27.818139166666665
tp2175
s(I8
I42
tp2176
g9
s(I7
I18
tp2177
(F-44.675788611111109
F11.536959166666666
tp2178
s(I29
I33
tp2179
(F19.064799166666667
F-27.818139166666665
tp2180
s(I33
I38
tp2181
(F40.07548666666667
F-43.542219166666662
tp2182
s(I16
I26
tp2183
(F-17.004620555555555
F-8.9490180555555554
tp2184
s(I41
I38
tp2185
g9
s(I22
I0
tp2186
g9
s(I44
I21
tp2187
(F73.27282944444444
F3.8225536111111107
tp2188
s(I9
I13
tp2189
(F-41.444324166666661
F24.974965277777777
tp2190
s(I34
I31
tp2191
(F33.505543611111108
F-22.196100833333333
tp2192
s(I24
I25
tp2193
(F3.8464061111111114
F-6.3793702777777774
tp2194
s(I10
I20
tp2195
(F-33.98784361111111
F6.3793702777777774
tp2196
s(I13
I9
tp2197
(F-31.855430833333333
F36.86989777777778
tp2198
s(I0
I2
tp2199
g9
s(I38
I19
tp2200
(F44.217014722222224
F8.9490180555555554
tp2201
s(I3
I15
tp2202
(F-66.815054444444442
F19.471220555555554
tp2203
s(I28
I29
tp2204
(F14.793204722222223
F-16.791447222222224
tp2205
s(I1
I37
tp2206
g9
s(I40
I8
tp2207
g9
s(I21
I42
tp2208
(F-7.6794427777777781
F-60.073565000000002
tp2209
s(I4
I22
tp2210
(F-55.328319166666667
F1.2733444444444444
tp2211
s(I26
I39
tp2212
(F13.226560000000001
F-47.166571944444442
tp2213
s(I7
I11
tp2214
(F-53.272232500000001
F30.737868611111111
tp2215
s(I16
I17
tp2216
(F-17.333137222222224
F14.149004444444444
tp2217
s(I22
I27
tp2218
(F-1.299606111111111
F-11.536959166666666
tp2219
s(I44
I12
tp2220
g9
s(I12
I37
tp2221
(F-37.611205555555557
F-40.12403472222222
tp2222
s(I34
I22
tp2223
(F30.746284722222224
F1.2733444444444444
tp2224
s(I10
I31
tp2225
(F-36.871272777777776
F-22.196100833333333
tp2226
s(I13
I2
tp2227
g9
s(I0
I25
tp2228
g9
s(I38
I10
tp2229
(F55.945966388888884
F33.748988611111109
tp2230
s(I25
I7
tp2231
(F8.8173358333333329
F43.542219166666662
tp2232
s(I28
I20
tp2233
(F14.239015833333333
F6.3793702777777774
tp2234
s(I14
I35
tp2235
(F-27.02274111111111
F-33.748988611111109
tp2236
s(I40
I15
tp2237
(F55.584224444444445
F19.471220555555554
tp2238
s(I4
I29
tp2239
(F-59.186691666666661
F-16.791447222222224
tp2240
s(I7
I0
tp2241
g9
s(I16
I8
tp2242
(F-22.197774722222224
F40.12403472222222
tp2243
s(I19
I5
tp2244
(F-14.328877499999999
F51.057558611111105
tp2245
s(I41
I16
tp2246
(F59.186691666666661
F16.791447222222224
tp2247
s(I22
I18
tp2248
(F-1.299606111111111
F11.536959166666666
tp2249
s(I44
I11
tp2250
g9
s(I34
I17
tp2251
(F31.809832500000002
F14.149004444444444
tp2252
s(I37
I36
tp2253
(F53.663942499999997
F-36.86989777777778
tp2254
s(I10
I6
tp2255
(F-54.80056305555555
F47.166571944444442
tp2256
s(I35
I18
tp2257
(F34.542091388888885
F11.536959166666666
tp2258
s(I0
I16
tp2259
g9
s(I38
I13
tp2260
(F49.459792222222227
F24.974965277777777
tp2261
s(I25
I8
tp2262
(F8.3552047222222221
F40.12403472222222
tp2263
s(I28
I19
tp2264
(F14.327063611111111
F8.9490180555555554
tp2265
s(I14
I42
tp2266
(F-49.221499166666668
F-60.073565000000002
tp2267
s(I4
I4
tp2268
g9
s(I26
I41
tp2269
(F15.860974166666667
F-55.307869444444442
tp2270
s(I29
I12
tp2271
(F19.064799166666667
F27.818139166666665
tp2272
s(I16
I15
tp2273
(F-17.84319
F19.471220555555554
tp2274
s(I19
I10
tp2275
(F-10.782592500000002
F33.748988611111109
tp2276
s(I41
I25
tp2277
(F55.826978888888895
F-6.3793702777777774
tp2278
s(I22
I21
tp2279
(F-1.2761838888888888
F3.8225536111111107
tp2280
s(I5
I35
tp2281
(F-69.295188888888887
F-33.748988611111109
tp2282
s(I44
I2
tp2283
g9
s(I9
I32
tp2284
(F-41.444324166666661
F-24.974965277777777
tp2285
s(I34
I40
tp2286
(F54.407090833333335
F-51.057558611111105
tp2287
s(I17
I32
tp2288
(F-15.644017222222221
F-24.974965277777777
tp2289
s(I23
I14
tp2290
(F1.3752747222222224
F22.196100833333333
tp2291
s(I10
I1
tp2292
g9
s(I35
I27
tp2293
(F34.542091388888885
F-11.536959166666666
tp2294
s(I0
I23
tp2295
g9
s(I38
I4
tp2296
g9
s(I25
I17
tp2297
(F6.5798224999999997
F14.149004444444444
tp2298
s(I1
I8
tp2299
g9
s(I39
I31
tp2300
(F52.375188055555554
F-22.196100833333333
tp2301
s(I4
I3
tp2302
g9
s(I29
I5
tp2303
(F27.362551388888889
F51.057558611111105
tp2304
s(I16
I6
tp2305
(F-25.145491666666665
F47.166571944444442
tp2306
s(I19
I19
tp2307
(F-9.0602183333333333
F8.9490180555555554
tp2308
s(I2
I41
tp2309
g9
s(I41
I2
tp2310
g9
s(I22
I44
tp2311
(F-4.3229322222222217
F-72.853789999999989
tp2312
s(I5
I44
tp2313
g9
s(I9
I41
tp2314
g9
s(I34
I35
tp2315
(F37.930187222222223
F-33.748988611111109
tp2316
s(I17
I25
tp2317
(F-14.239015833333333
F-6.3793702777777774
tp2318
s(I42
I35
tp2319
g9
s(I23
I7
tp2320
(F1.7567900000000001
F43.542219166666662
tp2321
s(I10
I8
tp2322
(F-46.597754444444448
F40.12403472222222
tp2323
s(I35
I0
tp2324
g9
s(I25
I26
tp2325
(F6.4583147222222221
F-8.9490180555555554
tp2326
s(I11
I27
tp2327
(F-31.443035277777778
F-11.536959166666666
tp2328
s(I1
I1
tp2329
g9
s(I39
I20
tp2330
(F47.553040277777775
F6.3793702777777774
tp2331
s(I4
I10
tp2332
(F-81.442332777777779
F33.748988611111109
tp2333
s(I29
I30
tp2334
(F17.84319
F-19.471220555555554
tp2335
s(I19
I24
tp2336
(F-8.9691358333333326
F-3.8225536111111107
tp2337
s(I2
I32
tp2338
g9
s(I41
I11
tp2339
(F73.060358611111113
F30.737868611111111
tp2340
s(I22
I39
tp2341
(F-1.8731047222222224
F-47.166571944444442
tp2342
s(I5
I21
tp2343
(F-51.215912222222222
F3.8225536111111107
tp2344
s(I27
I40
tp2345
(F18.553985555555556
F-51.057558611111105
tp2346
s(I30
I39
tp2347
(F29.35966638888889
F-47.166571944444442
tp2348
s(I17
I18
tp2349
(F-14.447043055555556
F11.536959166666666
tp2350
s(I42
I42
tp2351
g9
s(I23
I28
tp2352
(F1.313188888888889
F-14.149004444444444
tp2353
s(I32
I12
tp2354
(F28.515270277777777
F27.818139166666665
tp2355
s(I13
I38
tp2356
(F-35.625329444444446
F-43.542219166666662
tp2357
s(I35
I9
tp2358
(F43.982963055555558
F36.86989777777778
tp2359
s(I11
I16
tp2360
(F-32.267587777777777
F16.791447222222224
tp2361
s(I1
I26
tp2362
(F-75.31422666666667
F-8.9490180555555554
tp2363
s(I39
I13
tp2364
(F53.996302222222226
F24.974965277777777
tp2365
s(I26
I2
tp2366
(F22.17363527777778
F65.659353333333343
tp2367
s(I29
I23
tp2368
(F16.795717777777778
F-1.2733444444444444
tp2369
s(I15
I36
tp2370
(F-24.624318333333335
F-36.86989777777778
tp2371
s(I19
I33
tp2372
(F-10.129966944444446
F-27.818139166666665
tp2373
s(I41
I12
tp2374
(F68.381873888888876
F27.818139166666665
tp2375
s(I5
I30
tp2376
(F-55.584224444444445
F-19.471220555555554
tp2377
s(I27
I33
tp2378
(F13.069541388888888
F-27.818139166666665
tp2379
s(I17
I11
tp2380
(F-16.522881111111111
F30.737868611111111
tp2381
s(I20
I0
tp2382
g9
s(I42
I21
tp2383
(F60.29624444444444
F3.8225536111111107
tp2384
s(I23
I21
tp2385
(F1.2761838888888888
F3.8225536111111107
tp2386
s(I32
I3
tp2387
(F57.814421666666661
F60.073565000000002
tp2388
s(I35
I14
tp2389
(F36.871272777777776
F22.196100833333333
tp2390
s(I18
I42
tp2391
(F-23.633945000000001
F-60.073565000000002
tp2392
s(I38
I41
tp2393
g9
s(I11
I9
tp2394
(F-39.70901666666667
F36.86989777777778
tp2395
s(I14
I6
tp2396
(F-33.756350277777777
F47.166571944444442
tp2397
s(I36
I23
tp2398
(F36.880512777777781
F-1.2733444444444444
tp2399
s(I1
I19
tp2400
(F-75.31422666666667
F8.9490180555555554
tp2401
s(I39
I10
tp2402
(F61.879963611111108
F33.748988611111109
tp2403
s(I26
I13
tp2404
(F9.8809536111111118
F24.974965277777777
tp2405
s(I29
I16
tp2406
(F17.563038611111111
F16.791447222222224
tp2407
s(I19
I38
tp2408
(F-12.391988888888889
F-43.542219166666662
tp2409
s(I5
I7
tp2410
g9
s(I27
I38
tp2411
(F16.016412777777777
F-43.542219166666662
tp2412
s(I30
I17
tp2413
(F20.106238055555558
F14.149004444444444
tp2414
s(I17
I12
tp2415
(F-16.044591944444445
F27.818139166666665
tp2416
s(I20
I15
tp2417
(F-6.7681013888888888
F19.471220555555554
tp2418
s(I42
I28
tp2419
(F63.352284166666671
F-14.149004444444444
tp2420
s(I23
I18
tp2421
(F1.299606111111111
F11.536959166666666
tp2422
s(I10
I37
tp2423
(F-46.597754444444448
F-40.12403472222222
tp2424
s(I32
I26
tp2425
(F25.304268055555557
F-8.9490180555555554
tp2426
s(I18
I37
tp2427
(F-15.162480277777778
F-40.12403472222222
tp2428
s(I38
I32
tp2429
(F49.459792222222227
F-24.974965277777777
tp2430
s(I8
I19
tp2431
(F-40.721726666666669
F8.9490180555555554
tp2432
s(I11
I14
tp2433
(F-33.505543611111108
F22.196100833333333
tp2434
s(I14
I9
tp2435
(F-28.178642777777778
F36.86989777777778
tp2436
s(I36
I30
tp2437
(F39.523607777777777
F-19.471220555555554
tp2438
s(I1
I20
tp2439
(F-74.051535000000001
F6.3793702777777774
tp2440
s(I39
I3
tp2441
g9
s(I26
I20
tp2442
(F9.0052380555555551
F6.3793702777777774
tp2443
s(I15
I42
tp2444
(F-41.924679999999995
F-60.073565000000002
tp2445
s(I2
I13
tp2446
g9
s(I24
I34
tp2447
(F4.4485094444444444
F-30.737868611111111
tp2448
s(I5
I0
tp2449
g9
s(I30
I24
tp2450
(F19.516393333333333
F-3.8225536111111107
tp2451
s(I17
I5
tp2452
(F-22.886614444444444
F51.057558611111105
tp2453
s(I20
I22
tp2454
(F-6.3809524999999994
F1.2733444444444444
tp2455
s(I42
I7
tp2456
g9
s(I23
I43
tp2457
(F3.0906800000000003
F-65.659353333333343
tp2458
s(I6
I33
tp2459
(F-56.01215638888889
F-27.818139166666665
tp2460
s(I10
I44
tp2461
g9
s(I32
I17
tp2462
(F25.812772222222222
F14.149004444444444
tp2463
s(I18
I28
tp2464
(F-11.903101944444444
F-14.149004444444444
tp2465
s(I43
I44
tp2466
g9
s(I8
I26
tp2467
(F-40.721726666666669
F-8.9490180555555554
tp2468
s(I11
I7
tp2469
(F-44.838450833333333
F43.542219166666662
tp2470
s(I14
I16
tp2471
(F-23.241191111111114
F16.791447222222224
tp2472
s(I36
I5
tp2473
(F72.667921111111113
F51.057558611111105
tp2474
s(I26
I31
tp2475
(F9.6718674999999994
F-22.196100833333333
tp2476
s(I12
I30
tp2477
(F-29.668085000000001
F-19.471220555555554
tp2478
s(I2
I4
tp2479
g9
s(I24
I41
tp2480
(F6.726514166666667
F-55.307869444444442
tp2481
s(I5
I9
tp2482
(F-76.463797222222226
F36.86989777777778
tp2483
s(I30
I3
tp2484
(F41.924679999999995
F60.073565000000002
tp2485
s(I20
I29
tp2486
(F-6.6647441666666669
F-16.791447222222224
tp2487
s(I42
I14
tp2488
(F69.395183333333335
F22.196100833333333
tp2489
s(I23
I32
tp2490
(F1.4047191666666665
F-24.974965277777777
tp2491
s(I6
I24
tp2492
(F-47.304547222222219
F-3.8225536111111107
tp2493
s(I32
I40
tp2494
(F42.20238638888889
F-51.057558611111105
tp2495
s(I31
I32
tp2496
(F24.629368333333336
F-24.974965277777777
tp2497
s(I35
I37
tp2498
(F46.597754444444448
F-40.12403472222222
tp2499
s(I18
I23
tp2500
(F-11.539847777777778
F-1.2733444444444444
tp2501
s(I43
I37
tp2502
g9
s(I8
I1
tp2503
g9
s(I33
I15
tp2504
(F29.668085000000001
F19.471220555555554
tp2505
s(I14
I27
tp2506
(F-22.678996388888891
F-11.536959166666666
tp2507
s(I36
I12
tp2508
(F42.718780555555554
F27.818139166666665
tp2509
s(I12
I21
tp2510
(F-27.885566944444445
F3.8225536111111107
tp2511
s(I2
I31
tp2512
(F-79.747035555555556
F-22.196100833333333
tp2513
s(I27
I13
tp2514
(F12.746076944444443
F24.974965277777777
tp2515
s(I30
I10
tp2516
(F23.633945000000001
F33.748988611111109
tp2517
s(I0
I41
tp2518
g9
s(I20
I36
tp2519
(F-7.9835561111111115
F-36.86989777777778
tp2520
s(I3
I36
tp2521
g9
s(I42
I9
tp2522
g9
s(I6
I19
tp2523
(F-47.933704722222217
F8.9490180555555554
tp2524
s(I28
I36
tp2525
(F17.791590555555558
F-36.86989777777778
tp2526
s(I31
I41
tp2527
(F41.585618333333336
F-55.307869444444442
tp2528
s(I35
I42
tp2529
g9
s(I18
I14
tp2530
(F-12.474607222222222
F22.196100833333333
tp2531
s(I21
I3
tp2532
(F-7.6794427777777781
F60.073565000000002
tp2533
s(I43
I26
tp2534
(F67.270400555555554
F-8.9490180555555554
tp2535
s(I8
I8
tp2536
(F-57.436493055555552
F40.12403472222222
tp2537
s(I33
I0
tp2538
g9
s(I36
I11
tp2539
(F44.272234722222223
F30.737868611111111
tp2540
s(I12
I12
tp2541
(F-31.846464722222223
F27.818139166666665
tp2542
s(I15
I1
tp2543
g9
s(I37
I20
tp2544
(F40.425571388888883
F6.3793702777777774
tp2545
s(I2
I22
tp2546
(F-65.690656944444441
F1.2733444444444444
tp2547
s(I27
I2
tp2548
(F29.028687777777776
F65.659353333333343
tp2549
s(I30
I13
tp2550
(F21.574933888888889
F24.974965277777777
tp2551
s(I0
I32
tp2552
g9
s(I20
I35
tp2553
(F-7.6794427777777781
F-33.748988611111109
tp2554
s(I6
I10
tp2555
(F-61.879963611111108
F33.748988611111109
tp2556
s(I28
I35
tp2557
(F17.096825277777775
F-33.748988611111109
tp2558
s(I32
I38
tp2559
(F35.625329444444446
F-43.542219166666662
tp2560
s(I31
I22
tp2561
(F22.201875277777777
F1.2733444444444444
tp2562
s(I18
I9
tp2563
(F-14.477512222222222
F36.86989777777778
tp2564
s(I40
I38
tp2565
g9
s(I21
I12
tp2566
(F-4.3229322222222217
F27.818139166666665
tp2567
s(I43
I19
tp2568
(F67.270400555555554
F8.9490180555555554
tp2569
s(I8
I15
tp2570
(F-43.120623888888886
F19.471220555555554
tp2571
s(I7
I41
tp2572
g9
s(I11
I42
tp2573
g9
s(I33
I25
tp2574
(F28.006665277777778
F-6.3793702777777774
tp2575
s(I39
I39
tp2576
g9
s(I9
I16
tp2577
(F-38.8086725
F16.791447222222224
tp2578
s(I12
I11
tp2579
(F-32.884144166666665
F30.737868611111111
tp2580
s(I15
I14
tp2581
(F-21.100903611111111
F22.196100833333333
tp2582
s(I37
I29
tp2583
(F42.310310555555553
F-16.791447222222224
tp2584
s(I2
I17
tp2585
(F-69.987161388888893
F14.149004444444444
tp2586
s(I27
I27
tp2587
(F11.778232222222224
F-11.536959166666666
tp2588
s(I0
I39
tp2589
g9
s(I20
I42
tp2590
(F-12.868706944444446
F-60.073565000000002
tp2591
s(I3
I18
tp2592
(F-62.194716388888885
F11.536959166666666
tp2593
s(I25
I33
tp2594
(F7.2171230555555557
F-27.818139166666665
tp2595
s(I6
I13
tp2596
(F-53.996302222222226
F24.974965277777777
tp2597
s(I31
I31
tp2598
(F24.080079166666668
F-22.196100833333333
tp2599
s(I18
I0
tp2600
g9
s(I21
I21
tp2601
(F-3.8310894444444443
F3.8225536111111107
tp2602
s(I43
I8
tp2603
g9
s(I7
I38
tp2604
(F-71.872401944444434
F-43.542219166666662
tp2605
s(I11
I35
tp2606
(F-37.930187222222223
F-33.748988611111109
tp2607
s(I33
I18
tp2608
(F28.44335361111111
F11.536959166666666
tp2609
s(I44
I41
tp2610
g9
s(I9
I25
tp2611
(F-37.138109444444446
F-6.3793702777777774
tp2612
s(I12
I2
tp2613
g9
s(I15
I23
tp2614
(F-19.476224444444444
F-1.2733444444444444
tp2615
s(I37
I6
tp2616
(F71.422690833333334
F47.166571944444442
tp2617
s(I24
I5
tp2618
(F6.0885877777777777
F51.057558611111105
tp2619
s(I27
I16
tp2620
(F12.058322222222223
F16.791447222222224
tp2621
s(I13
I29
tp2622
(F-26.169389722222224
F-16.791447222222224
tp2623
s(I3
I27
tp2624
(F-62.194716388888885
F-11.536959166666666
tp2625
s(I25
I42
tp2626
(F12.868706944444446
F-60.073565000000002
tp2627
s(I6
I4
tp2628
g9
s(I31
I4
tp2629
(F41.585618333333336
F55.307869444444442
tp2630
s(I40
I20
tp2631
(F51.501439166666664
F6.3793702777777774
tp2632
s(I21
I30
tp2633
(F-4.0548072222222222
F-19.471220555555554
tp2634
s(I43
I1
tp2635
g9
s(I7
I31
tp2636
(F-48.075320000000005
F-22.196100833333333
tp2637
s(I33
I43
tp2638
g9
s(I36
I32
tp2639
(F41.444324166666661
F-24.974965277777777
tp2640
s(I44
I32
tp2641
g9
s(I9
I2
tp2642
g9
s(I34
I10
tp2643
(F37.930187222222223
F33.748988611111109
tp2644
s(I15
I28
tp2645
(F-20.106238055555558
F-14.149004444444444
tp2646
s(I37
I15
tp2647
(F43.120623888888886
F19.471220555555554
tp2648
s(I24
I12
tp2649
(F4.3229322222222217
F27.818139166666665
tp2650
s(I13
I22
tp2651
(F-24.981557499999997
F1.2733444444444444
tp2652
s(I3
I0
tp2653
g9
s(I28
I8
tp2654
(F18.64363472222222
F40.12403472222222
tp2655
s(I31
I13
tp2656
(F24.629368333333336
F24.974965277777777
tp2657
s(I1
I42
tp2658
g9
s(I40
I27
tp2659
(F52.543577777777777
F-11.536959166666666
tp2660
s(I21
I39
tp2661
(F-5.6273563888888898
F-47.166571944444442
tp2662
s(I4
I33
tp2663
(F-68.381873888888876
F-27.818139166666665
tp2664
s(I43
I6
tp2665
g9
s(I8
I36
tp2666
(F-53.663942499999997
F-36.86989777777778
tp2667
s(I7
I20
tp2668
(F-43.882448888888888
F6.3793702777777774
tp2669
s(I29
I39
tp2670
(F25.145491666666665
F-47.166571944444442
tp2671
s(I33
I44
tp2672
g9
s(I16
I36
tp2673
(F-21.168448888888889
F-36.86989777777778
tp2674
s(I22
I14
tp2675
(F-1.3752747222222224
F22.196100833333333
tp2676
s(I44
I31
tp2677
g9
s(I9
I11
tp2678
(F-44.272234722222223
F30.737868611111111
tp2679
s(I34
I5
tp2680
(F54.407090833333335
F51.057558611111105
tp2681
s(I37
I8
tp2682
(F57.436493055555552
F40.12403472222222
tp2683
s(I24
I19
tp2684
(F3.8697297222222224
F8.9490180555555554
tp2685
s(I13
I15
tp2686
(F-26.604819166666669
F19.471220555555554
tp2687
s(I0
I12
tp2688
g9
s(I38
I25
tp2689
(F43.882448888888888
F-6.3793702777777774
tp2690
s(I3
I9
tp2691
g9
s(I28
I7
tp2692
(F19.707995555555556
F43.542219166666662
tp2693
s(I31
I10
tp2694
(F27.02274111111111
F33.748988611111109
tp2695
s(I1
I35
tp2696
g9
s(I40
I2
tp2697
g9
s(I21
I32
tp2698
(F-4.2175427777777781
F-24.974965277777777
tp2699
s(I4
I40
tp2700
g9
s(I8
I43
tp2701
g9
s(I7
I13
tp2702
(F-49.459792222222227
F24.974965277777777
tp2703
s(I29
I32
tp2704
(F18.583642777777776
F-24.974965277777777
tp2705
s(I33
I37
tp2706
(F37.611205555555557
F-40.12403472222222
tp2707
s(I16
I27
tp2708
(F-17.14830222222222
F-11.536959166666666
tp2709
s(I41
I37
tp2710
g9
s(I22
I1
tp2711
(F-4.3229322222222217
F72.853789999999989
tp2712
s(I44
I22
tp2713
(F72.899720833333333
F1.2733444444444444
tp2714
s(I9
I12
tp2715
(F-42.718780555555554
F27.818139166666665
tp2716
s(I34
I28
tp2717
(F31.809832500000002
F-14.149004444444444
tp2718
s(I24
I26
tp2719
(F3.8697297222222224
F-8.9490180555555554
tp2720
s(I10
I21
tp2721
(F-33.834387777777778
F3.8225536111111107
tp2722
s(I13
I8
tp2723
(F-33.516443611111114
F40.12403472222222
tp2724
s(I0
I3
tp2725
g9
s(I38
I16
tp2726
(F46.018943611111112
F16.791447222222224
tp2727
s(I3
I14
tp2728
(F-69.395183333333335
F22.196100833333333
tp2729
s(I28
I30
tp2730
(F15.026898333333333
F-19.471220555555554
tp2731
s(I1
I36
tp2732
g9
s(I40
I9
tp2733
(F76.463797222222226
F36.86989777777778
tp2734
s(I21
I41
tp2735
(F-6.726514166666667
F-55.307869444444442
tp2736
s(I4
I23
tp2737
(F-55.328319166666667
F-1.2733444444444444
tp2738
s(I26
I36
tp2739
(F11.212271388888889
F-36.86989777777778
tp2740
s(I7
I10
tp2741
(F-55.945966388888884
F33.748988611111109
tp2742
s(I16
I18
tp2743
(F-17.14830222222222
F11.536959166666666
tp2744
s(I22
I24
tp2745
(F-1.2761838888888888
F-3.8225536111111107
tp2746
s(I44
I13
tp2747
g9
s(I12
I38
tp2748
(F-40.07548666666667
F-43.542219166666662
tp2749
s(I34
I23
tp2750
(F30.746284722222224
F-1.2733444444444444
tp2751
s(I10
I28
tp2752
(F-34.955256111111112
F-14.149004444444444
tp2753
s(I13
I1
tp2754
g9
s(I0
I26
tp2755
g9
s(I38
I11
tp2756
(F53.272232500000001
F30.737868611111111
tp2757
s(I25
I6
tp2758
(F9.4060486111111121
F47.166571944444442
tp2759
s(I28
I21
tp2760
(F14.181211666666666
F3.8225536111111107
tp2761
s(I14
I32
tp2762
(F-24.629368333333336
F-24.974965277777777
tp2763
s(I4
I30
tp2764
(F-60.703406111111114
F-19.471220555555554
tp2765
s(I7
I3
tp2766
g9
s(I16
I9
tp2767
(F-21.168448888888889
F36.86989777777778
tp2768
s(I19
I4
tp2769
(F-15.860974166666667
F55.307869444444442
tp2770
s(I41
I23
tp2771
(F55.328319166666667
F-1.2733444444444444
tp2772
s(I22
I19
tp2773
(F-1.2890383333333333
F8.9490180555555554
tp2774
s(I44
I4
tp2775
g9
s(I37
I35
tp2776
(F50.810255277777777
F-33.748988611111109
tp2777
s(I10
I7
tp2778
(F-50.033859722222218
F43.542219166666662
tp2779
s(I35
I21
tp2780
(F33.834387777777778
F3.8225536111111107
tp2781
s(I0
I17
tp2782
g9
s(I38
I2
tp2783
g9
s(I25
I15
tp2784
(F6.7681013888888888
F19.471220555555554
tp2785
s(I14
I43
tp2786
(F-66.430909444444453
F-65.659353333333343
tp2787
s(I4
I5
tp2788
g9
s(I29
I11
tp2789
(F19.639868055555556
F30.737868611111111
tp2790
s(I16
I0
tp2791
g9
s(I19
I13
tp2792
(F-9.8809536111111118
F24.974965277777777
tp2793
s(I41
I24
tp2794
(F55.492849722222225
F-3.8225536111111107
tp2795
s(I22
I42
tp2796
(F-2.5530016666666664
F-60.073565000000002
tp2797
s(I5
I34
tp2798
(F-64.810283611111103
F-30.737868611111111
tp2799
s(I44
I3
tp2800
g9
s(I9
I39
tp2801
(F-61.9481775
F-47.166571944444442
tp2802
s(I34
I41
tp2803
(F63.896295833333333
F-55.307869444444442
tp2804
s(I17
I39
tp2805
(F-21.072332222222222
F-47.166571944444442
tp2806
s(I37
I44
tp2807
g9
s(I23
I9
tp2808
(F1.5917541666666668
F36.86989777777778
tp2809
s(I10
I14
tp2810
(F-36.871272777777776
F22.196100833333333
tp2811
s(I35
I26
tp2812
(F34.222046944444443
F-8.9490180555555554
tp2813
s(I38
I5
tp2814
g9
s(I25
I16
tp2815
(F6.6647441666666669
F16.791447222222224
tp2816
s(I1
I15
tp2817
g9
s(I39
I30
tp2818
(F51.061176111111109
F-19.471220555555554
tp2819
s(I4
I12
tp2820
(F-68.381873888888876
F27.818139166666665
tp2821
s(I29
I4
tp2822
(F30.501753055555554
F55.307869444444442
tp2823
s(I16
I7
tp2824
(F-23.486974166666666
F43.542219166666662
tp2825
s(I19
I18
tp2826
(F-9.1351166666666668
F11.536959166666666
tp2827
s(I2
I38
tp2828
g9
s(I41
I1
tp2829
g9
s(I5
I43
tp2830
g9
s(I9
I40
tp2831
(F-72.667921111111113
F-51.057558611111105
tp2832
s(I34
I32
tp2833
(F34.321353611111114
F-24.974965277777777
tp2834
s(I17
I24
tp2835
(F-14.181211666666666
F-3.8225536111111107
tp2836
s(I42
I32
tp2837
(F72.953304722222228
F-24.974965277777777
tp2838
s(I23
I6
tp2839
(F1.8731047222222224
F47.166571944444442
tp2840
s(I10
I9
tp2841
(F-43.982963055555558
F36.86989777777778
tp2842
s(I13
I44
tp2843
g9
s(I35
I3
tp2844
g9
s(I25
I25
tp2845
(F6.4192841666666673
F-6.3793702777777774
tp2846
s(I11
I26
tp2847
(F-31.158643055555554
F-8.9490180555555554
tp2848
s(I1
I0
tp2849
g9
s(I39
I23
tp2850
(F47.181839444444442
F-1.2733444444444444
tp2851
s(I4
I11
tp2852
(F-73.060358611111113
F30.737868611111111
tp2853
s(I29
I29
tp2854
(F17.563038611111111
F-16.791447222222224
tp2855
s(I19
I27
tp2856
(F-9.1351166666666668
F-11.536959166666666
tp2857
s(I2
I33
tp2858
g9
s(I41
I10
tp2859
(F81.442332777777779
F33.748988611111109
tp2860
s(I22
I36
tp2861
(F-1.5917541666666668
F-36.86989777777778
tp2862
s(I5
I20
tp2863
(F-51.501439166666664
F6.3793702777777774
tp2864
s(I27
I43
tp2865
(F29.028687777777776
F-65.659353333333343
tp2866
s(I30
I36
tp2867
(F24.624318333333335
F-36.86989777777778
tp2868
s(I17
I17
tp2869
(F-14.601345833333333
F14.149004444444444
tp2870
s(I42
I43
tp2871
g9
s(I23
I31
tp2872
(F1.3752747222222224
F-22.196100833333333
tp2873
s(I32
I13
tp2874
(F27.760443333333335
F24.974965277777777
tp2875
s(I13
I37
tp2876
(F-33.516443611111114
F-40.12403472222222
tp2877
s(I35
I8
tp2878
(F46.597754444444448
F40.12403472222222
tp2879
s(I11
I19
tp2880
(F-31.158643055555554
F8.9490180555555554
tp2881
s(I1
I25
tp2882
(F-74.051535000000001
F-6.3793702777777774
tp2883
s(I39
I12
tp2884
(F56.01215638888889
F27.818139166666665
tp2885
s(I26
I3
tp2886
(F18.168028888888891
F60.073565000000002
tp2887
s(I29
I22
tp2888
(F16.795717777777778
F1.2733444444444444
tp2889
s(I15
I39
tp2890
(F-29.35966638888889
F-47.166571944444442
tp2891
s(I19
I32
tp2892
(F-9.8809536111111118
F-24.974965277777777
tp2893
s(I5
I29
tp2894
(F-54.332765833333333
F-16.791447222222224
tp2895
s(I27
I32
tp2896
(F12.746076944444443
F-24.974965277777777
tp2897
s(I17
I10
tp2898
(F-17.096825277777775
F33.748988611111109
tp2899
s(I20
I1
tp2900
(F-22.141123888888888
F72.853789999999989
tp2901
s(I42
I18
tp2902
(F62.194716388888885
F11.536959166666666
tp2903
s(I23
I20
tp2904
(F1.2812794444444444
F6.3793702777777774
tp2905
s(I32
I4
tp2906
(F47.887141944444444
F55.307869444444442
tp2907
s(I18
I43
tp2908
(F-29.028687777777776
F-65.659353333333343
tp2909
s(I11
I8
tp2910
(F-41.945538611111111
F40.12403472222222
tp2911
s(I14
I7
tp2912
(F-31.410660833333331
F43.542219166666662
tp2913
s(I36
I16
tp2914
(F38.8086725
F16.791447222222224
tp2915
s(I1
I18
tp2916
(F-77.228595555555557
F11.536959166666666
tp2917
s(I39
I5
tp2918
g9
s(I26
I10
tp2919
(F10.782592500000002
F33.748988611111109
tp2920
s(I15
I44
tp2921
g9
s(I19
I41
tp2922
(F-15.860974166666667
F-55.307869444444442
tp2923
s(I5
I6
tp2924
g9
s(I30
I22
tp2925
(F19.476224444444444
F1.2733444444444444
tp2926
s(I17
I3
tp2927
(F-29.339197499999997
F60.073565000000002
tp2928
s(I20
I8
tp2929
(F-8.3552047222222221
F40.12403472222222
tp2930
s(I42
I29
tp2931
(F64.858967222222219
F-16.791447222222224
tp2932
s(I10
I34
tp2933
(F-40.267691111111112
F-30.737868611111111
tp2934
s(I32
I27
tp2935
(F25.526515555555555
F-11.536959166666666
tp2936
s(I18
I34
tp2937
(F-13.455463333333332
F-30.737868611111111
tp2938
s(I38
I33
tp2939
(F51.160363888888888
F-27.818139166666665
tp2940
s(I8
I20
tp2941
(F-40.425571388888883
F6.3793702777777774
tp2942
s(I11
I1
tp2943
g9
s(I14
I14
tp2944
(F-24.080079166666668
F22.196100833333333
tp2945
s(I36
I31
tp2946
(F40.392539722222224
F-22.196100833333333
tp2947
s(I39
I2
tp2948
g9
s(I26
I21
tp2949
(F8.9691358333333326
F3.8225536111111107
tp2950
s(I2
I10
tp2951
g9
s(I24
I35
tp2952
(F4.5988186111111107
F-33.748988611111109
tp2953
s(I5
I15
tp2954
(F-55.584224444444445
F19.471220555555554
tp2955
s(I30
I25
tp2956
(F19.597483611111109
F-6.3793702777777774
tp2957
s(I17
I4
tp2958
(F-25.434427500000002
F55.307869444444442
tp2959
s(I20
I23
tp2960
(F-6.3809524999999994
F-1.2733444444444444
tp2961
s(I42
I4
tp2962
g9
s(I23
I42
tp2963
(F2.5530016666666664
F-60.073565000000002
tp2964
s(I6
I38
tp2965
g9
s(I32
I18
tp2966
(F25.526515555555555
F11.536959166666666
tp2967
s(I18
I29
tp2968
(F-12.058322222222223
F-16.791447222222224
tp2969
s(I8
I27
tp2970
(F-41.127233888888888
F-11.536959166666666
tp2971
s(I11
I6
tp2972
(F-48.744674444444442
F47.166571944444442
tp2973
s(I14
I17
tp2974
(F-22.929417222222224
F14.149004444444444
tp2975
s(I36
I6
tp2976
(F61.9481775
F47.166571944444442
tp2977
s(I26
I28
tp2978
(F9.2314052777777782
F-14.149004444444444
tp2979
s(I12
I31
tp2980
(F-30.2660625
F-22.196100833333333
tp2981
s(I2
I5
tp2982
g9
s(I24
I42
tp2983
(F7.6794427777777781
F-60.073565000000002
tp2984
s(I5
I8
tp2985
g9
s(I30
I0
tp2986
g9
s(I20
I30
tp2987
(F-6.7681013888888888
F-19.471220555555554
tp2988
s(I42
I15
tp2989
(F66.815054444444442
F19.471220555555554
tp2990
s(I23
I35
tp2991
(F1.5314763888888889
F-33.748988611111109
tp2992
s(I6
I25
tp2993
(F-47.553040277777775
F-6.3793702777777774
tp2994
s(I32
I41
tp2995
(F47.887141944444444
F-55.307869444444442
tp2996
s(I31
I35
tp2997
(F27.02274111111111
F-33.748988611111109
tp2998
s(I35
I36
tp2999
(F43.982963055555558
F-36.86989777777778
tp3000
s(I18
I20
tp3001
(F-11.609838055555555
F6.3793702777777774
tp3002
s(I43
I36
tp3003
g9
s(I8
I2
tp3004
g9
s(I33
I14
tp3005
(F30.2660625
F22.196100833333333
tp3006
s(I14
I24
tp3007
(F-22.248234166666666
F-3.8225536111111107
tp3008
s(I36
I13
tp3009
(F41.444324166666661
F24.974965277777777
tp3010
s(I12
I22
tp3011
(F-27.825606944444445
F1.2733444444444444
tp3012
s(I2
I28
tp3013
(F-69.987161388888893
F-14.149004444444444
tp3014
s(I27
I12
tp3015
(F13.069541388888888
F27.818139166666665
tp3016
s(I30
I11
tp3017
(F22.818658055555556
F30.737868611111111
tp3018
s(I0
I42
tp3019
g9
s(I20
I37
tp3020
(F-8.3552047222222221
F-40.12403472222222
tp3021
s(I3
I39
tp3022
g9
s(I6
I16
tp3023
(F-49.995438888888891
F16.791447222222224
tp3024
s(I28
I37
tp3025
(F18.64363472222222
F-40.12403472222222
tp3026
s(I32
I32
tp3027
(F27.760443333333335
F-24.974965277777777
tp3028
s(I31
I40
tp3029
(F36.944473333333328
F-51.057558611111105
tp3030
s(I18
I15
tp3031
(F-12.247324166666665
F19.471220555555554
tp3032
s(I40
I32
tp3033
(F59.093661666666669
F-24.974965277777777
tp3034
s(I21
I2
tp3035
(F-9.3084383333333349
F65.659353333333343
tp3036
s(I43
I29
tp3037
(F72.117569444444442
F-16.791447222222224
tp3038
s(I8
I9
tp3039
(F-53.663942499999997
F36.86989777777778
tp3040
s(I33
I7
tp3041
(F40.07548666666667
F43.542219166666662
tp3042
s(I39
I41
tp3043
g9
s(I12
I13
tp3044
(F-30.984412222222222
F24.974965277777777
tp3045
s(I15
I0
tp3046
g9
s(I37
I19
tp3047
(F40.721726666666669
F8.9490180555555554
tp3048
s(I2
I23
tp3049
(F-65.690656944444441
F-1.2733444444444444
tp3050
s(I27
I5
tp3051
(F18.553985555555556
F51.057558611111105
tp3052
s(I0
I33
tp3053
g9
s(I20
I44
tp3054
(F-22.141123888888888
F-72.853789999999989
tp3055
s(I3
I44
tp3056
g9
s(I6
I11
tp3057
(F-58.560860277777778
F30.737868611111111
tp3058
s(I32
I39
tp3059
(F38.391713333333335
F-47.166571944444442
tp3060
s(I31
I17
tp3061
(F22.929417222222224
F14.149004444444444
tp3062
s(I18
I6
tp3063
(F-17.108025555555557
F47.166571944444442
tp3064
s(I40
I39
tp3065
g9
s(I21
I11
tp3066
(F-4.4485094444444444
F30.737868611111111
tp3067
s(I43
I18
tp3068
(F68.419058333333339
F11.536959166666666
tp3069
s(I7
I40
tp3070
g9
s(I33
I24
tp3071
(F27.885566944444445
F-3.8225536111111107
tp3072
s(I39
I38
tp3073
g9
s(I9
I23
tp3074
(F-36.880512777777781
F-1.2733444444444444
tp3075
s(I12
I4
tp3076
(F-55.076010555555555
F55.307869444444442
tp3077
s(I15
I9
tp3078
(F-24.624318333333335
F36.86989777777778
tp3079
s(I37
I28
tp3080
(F41.652137222222223
F-14.149004444444444
tp3081
s(I27
I26
tp3082
(F11.681117499999999
F-8.9490180555555554
tp3083
s(I20
I43
tp3084
(F-15.639390833333334
F-65.659353333333343
tp3085
s(I3
I21
tp3086
(F-60.29624444444444
F3.8225536111111107
tp3087
s(I25
I32
tp3088
(F7.040597222222222
F-24.974965277777777
tp3089
s(I6
I2
tp3090
g9
s(I31
I30
tp3091
(F23.621561111111113
F-19.471220555555554
tp3092
s(I18
I1
tp3093
(F-42.718780555555554
F72.853789999999989
tp3094
s(I21
I20
tp3095
(F-3.8464061111111114
F6.3793702777777774
tp3096
s(I43
I11
tp3097
g9
s(I7
I33
tp3098
(F-51.160363888888888
F-27.818139166666665
tp3099
s(I11
I34
tp3100
(F-36.487745555555556
F-30.737868611111111
tp3101
s(I33
I17
tp3102
(F28.768165555555555
F14.149004444444444
tp3103
s(I44
I42
tp3104
g9
s(I9
I24
tp3105
(F-36.965770277777779
F-3.8225536111111107
tp3106
s(I12
I3
tp3107
(F-69.295188888888887
F60.073565000000002
tp3108
s(I15
I22
tp3109
(F-19.476224444444444
F1.2733444444444444
tp3110
s(I37
I5
tp3111
g9
s(I24
I6
tp3112
(F5.6273563888888898
F47.166571944444442
tp3113
s(I27
I19
tp3114
(F11.681117499999999
F8.9490180555555554
tp3115
s(I13
I28
tp3116
(F-25.812772222222222
F-14.149004444444444
tp3117
s(I3
I26
tp3118
(F-61.323908611111115
F-8.9490180555555554
tp3119
s(I25
I41
tp3120
(F11.257412222222221
F-55.307869444444442
tp3121
s(I6
I5
tp3122
g9
s(I31
I7
tp3123
(F31.410660833333331
F43.542219166666662
tp3124
s(I40
I21
tp3125
(F51.215912222222222
F3.8225536111111107
tp3126
s(I21
I29
tp3127
(F-3.9930663888888889
F-16.791447222222224
tp3128
s(I43
I0
tp3129
g9
s(I7
I30
tp3130
(F-46.943179999999998
F-19.471220555555554
tp3131
s(I33
I42
tp3132
(F69.295188888888887
F-60.073565000000002
tp3133
s(I36
I33
tp3134
(F42.718780555555554
F-27.818139166666665
tp3135
s(I44
I33
tp3136
g9
s(I9
I1
tp3137
g9
s(I34
I11
tp3138
(F36.487745555555556
F30.737868611111111
tp3139
s(I15
I31
tp3140
(F-21.100903611111111
F-22.196100833333333
tp3141
s(I37
I14
tp3142
(F44.108735277777782
F22.196100833333333
tp3143
s(I24
I13
tp3144
(F4.2175427777777781
F24.974965277777777
tp3145
s(I13
I21
tp3146
(F-25.034482500000003
F3.8225536111111107
tp3147
s(I3
I3
tp3148
g9
s(I28
I9
tp3149
(F17.791590555555558
F36.86989777777778
tp3150
s(I31
I12
tp3151
(F25.286261666666668
F27.818139166666665
tp3152
s(I1
I41
tp3153
g9
s(I40
I28
tp3154
(F53.332181111111112
F-14.149004444444444
tp3155
s(I21
I38
tp3156
(F-5.277001666666667
F-43.542219166666662
tp3157
s(I4
I34
tp3158
(F-73.060358611111113
F-30.737868611111111
tp3159
s(I8
I37
tp3160
(F-57.436493055555552
F-40.12403472222222
tp3161
s(I7
I23
tp3162
(F-43.555670555555551
F-1.2733444444444444
tp3163
s(I29
I38
tp3164
(F23.486974166666666
F-43.542219166666662
tp3165
s(I33
I35
tp3166
(F34.142191388888889
F-33.748988611111109
tp3167
s(I16
I37
tp3168
(F-22.197774722222224
F-40.12403472222222
tp3169
s(I36
I40
tp3170
(F72.667921111111113
F-51.057558611111105
tp3171
s(I41
I35
tp3172
(F81.442332777777779
F-33.748988611111109
tp3173
s(I22
I15
tp3174
(F-1.3505994444444445
F19.471220555555554
tp3175
s(I44
I24
tp3176
(F73.27282944444444
F-3.8225536111111107
tp3177
s(I9
I10
tp3178
(F-46.187180833333329
F33.748988611111109
tp3179
s(I34
I2
tp3180
g9
s(I24
I20
tp3181
(F3.8464061111111114
F6.3793702777777774
tp3182
s(I13
I14
tp3183
(F-27.130233888888888
F22.196100833333333
tp3184
s(I0
I13
tp3185
g9
s(I38
I30
tp3186
(F46.943179999999998
F-19.471220555555554
tp3187
s(I3
I8
tp3188
g9
s(I28
I0
tp3189
g9
s(I1
I34
tp3190
g9
s(I40
I3
tp3191
g9
s(I4
I41
tp3192
g9
s(I8
I44
tp3193
g9
s(I7
I12
tp3194
(F-51.160363888888888
F27.818139166666665
tp3195
s(I33
I36
tp3196
(F35.685334722222215
F-36.86989777777778
tp3197
s(I16
I28
tp3198
(F-17.333137222222224
F-14.149004444444444
tp3199
s(I41
I36
tp3200
g9
s(I22
I6
tp3201
(F-1.8731047222222224
F47.166571944444442
tp3202
s(I44
I23
tp3203
(F72.899720833333333
F-1.2733444444444444
tp3204
s(I12
I40
tp3205
(F-47.941574999999993
F-51.057558611111105
tp3206
s(I34
I29
tp3207
(F32.267587777777777
F-16.791447222222224
tp3208
s(I24
I27
tp3209
(F3.9014983333333331
F-11.536959166666666
tp3210
s(I10
I18
tp3211
(F-34.542091388888885
F11.536959166666666
tp3212
s(I13
I7
tp3213
(F-35.625329444444446
F43.542219166666662
tp3214
s(I0
I4
tp3215
g9
s(I38
I17
tp3216
(F45.270834999999998
F14.149004444444444
tp3217
s(I28
I31
tp3218
(F15.308043055555556
F-22.196100833333333
tp3219
s(I40
I10
tp3220
(F69.295188888888887
F33.748988611111109
tp3221
s(I21
I40
tp3222
(F-6.0885877777777777
F-51.057558611111105
tp3223
s(I4
I16
tp3224
(F-59.186691666666661
F16.791447222222224
tp3225
s(I26
I37
tp3226
(F11.737805277777777
F-40.12403472222222
tp3227
s(I7
I5
tp3228
g9
s(I16
I19
tp3229
(F-17.004620555555555
F8.9490180555555554
tp3230
s(I22
I25
tp3231
(F-1.2812794444444444
F-6.3793702777777774
tp3232
s(I44
I14
tp3233
g9
s(I12
I39
tp3234
(F-43.346318888888888
F-47.166571944444442
tp3235
s(I34
I20
tp3236
(F30.950385833333332
F6.3793702777777774
tp3237
s(I10
I29
tp3238
(F-35.471500277777778
F-16.791447222222224
tp3239
s(I13
I0
tp3240
g9
s(I0
I27
tp3241
g9
s(I38
I8
tp3242
(F64.279156388888893
F40.12403472222222
tp3243
s(I25
I5
tp3244
(F10.182067499999999
F51.057558611111105
tp3245
s(I28
I22
tp3246
(F14.152572222222222
F1.2733444444444444
tp3247
s(I14
I33
tp3248
(F-25.286261666666668
F-27.818139166666665
tp3249
s(I4
I31
tp3250
(F-62.626534722222225
F-22.196100833333333
tp3251
s(I26
I44
tp3252
(F31.846464722222223
F-72.853789999999989
tp3253
s(I7
I2
tp3254
g9
s(I16
I10
tp3255
(F-20.330790277777776
F33.748988611111109
tp3256
s(I19
I7
tp3257
(F-12.391988888888889
F43.542219166666662
tp3258
s(I41
I22
tp3259
(F55.328319166666667
F1.2733444444444444
tp3260
s(I22
I16
tp3261
(F-1.3300644444444445
F16.791447222222224
tp3262
s(I44
I5
tp3263
g9
s(I37
I34
tp3264
(F48.571077777777781
F-30.737868611111111
tp3265
s(I10
I4
tp3266
(F-77.44453138888889
F55.307869444444442
tp3267
s(I35
I20
tp3268
(F33.98784361111111
F6.3793702777777774
tp3269
s(I0
I18
tp3270
g9
s(I38
I3
tp3271
g9
s(I25
I14
tp3272
(F6.8923241666666666
F22.196100833333333
tp3273
s(I14
I40
tp3274
(F-36.944473333333328
F-51.057558611111105
tp3275
s(I4
I6
tp3276
g9
s(I29
I10
tp3277
(F20.330790277777776
F33.748988611111109
tp3278
s(I16
I1
tp3279
(F-78.496311944444443
F72.853789999999989
tp3280
s(I19
I12
tp3281
(F-10.129966944444446
F27.818139166666665
tp3282
s(I2
I44
tp3283
g9
s(I41
I31
tp3284
(F62.626534722222225
F-22.196100833333333
tp3285
s(I22
I43
tp3286
(F-3.0906800000000003
F-65.659353333333343
tp3287
s(I5
I33
tp3288
(F-61.571043611111115
F-27.818139166666665
tp3289
s(I9
I38
tp3290
(F-55.867083333333333
F-43.542219166666662
tp3291
s(I34
I38
tp3292
(F44.838450833333333
F-43.542219166666662
tp3293
s(I17
I38
tp3294
(F-19.707995555555556
F-43.542219166666662
tp3295
s(I37
I43
tp3296
g9
s(I42
I38
tp3297
g9
s(I23
I8
tp3298
(F1.6653591666666665
F40.12403472222222
tp3299
s(I10
I15
tp3300
(F-36.104204722222221
F19.471220555555554
tp3301
s(I35
I29
tp3302
(F35.471500277777778
F-16.791447222222224
tp3303
s(I25
I23
tp3304
(F6.3809524999999994
F-1.2733444444444444
tp3305
s(I1
I14
tp3306
g9
s(I39
I25
tp3307
(F47.553040277777775
F-6.3793702777777774
tp3308
s(I4
I13
tp3309
(F-65.099062500000002
F24.974965277777777
tp3310
s(I29
I3
tp3311
(F35.384878611111112
F60.073565000000002
tp3312
s(I19
I21
tp3313
(F-8.9691358333333326
F3.8225536111111107
tp3314
s(I2
I39
tp3315
g9
s(I41
I0
tp3316
g9
s(I22
I34
tp3317
(F-1.4815122222222223
F-30.737868611111111
tp3318
s(I5
I42
tp3319
g9
s(I30
I34
tp3320
(F22.818658055555556
F-30.737868611111111
tp3321
s(I34
I33
tp3322
(F35.302746388888885
F-27.818139166666665
tp3323
s(I17
I31
tp3324
(F-15.308043055555556
F-22.196100833333333
tp3325
s(I42
I33
tp3326
(F78.496311944444443
F-27.818139166666665
tp3327
s(I23
I1
tp3328
(F4.3229322222222217
F72.853789999999989
tp3329
s(I13
I43
tp3330
g9
s(I35
I2
tp3331
g9
s(I25
I24
tp3332
(F6.3936533333333339
F-3.8225536111111107
tp3333
s(I11
I29
tp3334
(F-32.267587777777777
F-16.791447222222224
tp3335
s(I1
I7
tp3336
g9
s(I39
I22
tp3337
(F47.181839444444442
F1.2733444444444444
tp3338
s(I29
I28
tp3339
(F17.333137222222224
F-14.149004444444444
tp3340
s(I19
I26
tp3341
(F-9.0602183333333333
F-8.9490180555555554
tp3342
s(I41
I9
tp3343
g9
s(I22
I37
tp3344
(F-1.6653591666666665
F-40.12403472222222
tp3345
s(I5
I19
tp3346
(F-51.939686111111108
F8.9490180555555554
tp3347
s(I27
I42
tp3348
(F23.633945000000001
F-60.073565000000002
tp3349
s(I30
I37
tp3350
(F25.844399722222221
F-40.12403472222222
tp3351
s(I17
I16
tp3352
(F-14.793204722222223
F16.791447222222224
tp3353
s(I42
I40
tp3354
g9
s(I23
I30
tp3355
(F1.3505994444444445
F-19.471220555555554
tp3356
s(I32
I14
tp3357
(F27.130233888888888
F22.196100833333333
tp3358
s(I13
I36
tp3359
(F-31.855430833333333
F-36.86989777777778
tp3360
s(I35
I11
tp3361
(F40.267691111111112
F30.737868611111111
tp3362
s(I11
I18
tp3363
(F-31.443035277777778
F11.536959166666666
tp3364
s(I1
I24
tp3365
(F-73.27282944444444
F-3.8225536111111107
tp3366
s(I39
I15
tp3367
(F51.061176111111109
F19.471220555555554
tp3368
s(I26
I0
tp3369
g9
s(I29
I21
tp3370
(F16.830000277777778
F3.8225536111111107
tp3371
s(I15
I38
tp3372
(F-27.377719444444445
F-43.542219166666662
tp3373
s(I19
I35
tp3374
(F-10.782592500000002
F-33.748988611111109
tp3375
s(I5
I28
tp3376
(F-53.332181111111112
F-14.149004444444444
tp3377
s(I27
I35
tp3378
(F13.918125555555555
F-33.748988611111109
tp3379
s(I30
I44
tp3380
g9
s(I17
I9
tp3381
(F-17.791590555555558
F36.86989777777778
tp3382
s(I20
I2
tp3383
(F-15.639390833333334
F65.659353333333343
tp3384
s(I42
I19
tp3385
(F61.323908611111115
F8.9490180555555554
tp3386
s(I23
I23
tp3387
(F1.2736588888888889
F-1.2733444444444444
tp3388
s(I32
I5
tp3389
(F42.20238638888889
F51.057558611111105
tp3390
s(I18
I40
tp3391
(F-18.553985555555556
F-51.057558611111105
tp3392
s(I11
I11
tp3393
(F-36.487745555555556
F30.737868611111111
tp3394
s(I14
I4
tp3395
(F-41.585618333333336
F55.307869444444442
tp3396
s(I36
I17
tp3397
(F38.226477222222222
F14.149004444444444
tp3398
s(I1
I17
tp3399
(F-80.214480555555554
F14.149004444444444
tp3400
s(I39
I4
tp3401
g9
s(I26
I11
tp3402
(F10.426887499999999
F30.737868611111111
tp3403
s(I19
I40
tp3404
(F-14.328877499999999
F-51.057558611111105
tp3405
s(I5
I5
tp3406
g9
s(I30
I23
tp3407
(F19.476224444444444
F-1.2733444444444444
tp3408
s(I17
I2
tp3409
(F-36.375898333333332
F65.659353333333343
tp3410
s(I20
I9
tp3411
(F-7.9835561111111115
F36.86989777777778
tp3412
s(I42
I26
tp3413
(F61.323908611111115
F-8.9490180555555554
tp3414
s(I23
I44
tp3415
(F4.3229322222222217
F-72.853789999999989
tp3416
s(I6
I44
tp3417
g9
s(I10
I35
tp3418
(F-41.924679999999995
F-33.748988611111109
tp3419
s(I32
I28
tp3420
(F25.812772222222222
F-14.149004444444444
tp3421
s(I18
I35
tp3422
(F-13.918125555555555
F-33.748988611111109
tp3423
s(I38
I38
tp3424
(F71.872401944444434
F-43.542219166666662
tp3425
s(I43
I41
tp3426
g9
s(I8
I21
tp3427
(F-40.231787222222223
F3.8225536111111107
tp3428
s(I11
I0
tp3429
g9
s(I14
I15
tp3430
(F-23.621561111111113
F19.471220555555554
tp3431
s(I36
I24
tp3432
(F36.965770277777779
F-3.8225536111111107
tp3433
s(I26
I18
tp3434
(F9.1351166666666668
F11.536959166666666
tp3435
s(I2
I11
tp3436
g9
s(I24
I36
tp3437
(F4.7801919444444447
F-36.86989777777778
tp3438
s(I5
I14
tp3439
(F-57.142958333333333
F22.196100833333333
tp3440
s(I30
I30
tp3441
(F20.704811111111109
F-19.471220555555554
tp3442
s(I20
I16
tp3443
(F-6.6647441666666669
F16.791447222222224
tp3444
s(I42
I5
tp3445
g9
s(I23
I37
tp3446
(F1.6653591666666665
F-40.12403472222222
tp3447
s(I6
I39
tp3448
g9
s(I10
I42
tp3449
g9
s(I32
I19
tp3450
(F25.304268055555557
F8.9490180555555554
tp3451
s(I31
I37
tp3452
(F29.607288055555557
F-40.12403472222222
tp3453
s(I18
I26
tp3454
(F-11.681117499999999
F-8.9490180555555554
tp3455
s(I8
I28
tp3456
(F-41.652137222222223
F-14.149004444444444
tp3457
s(I14
I22
tp3458
(F-22.201875277777777
F1.2733444444444444
tp3459
s(I36
I7
tp3460
(F55.867083333333333
F43.542219166666662
tp3461
s(I26
I29
tp3462
(F9.3510722222222213
F-16.791447222222224
tp3463
s(I12
I24
tp3464
(F-27.885566944444445
F-3.8225536111111107
tp3465
s(I2
I2
tp3466
g9
s(I24
I43
tp3467
(F9.3084383333333349
F-65.659353333333343
tp3468
s(I30
I1
tp3469
g9
s(I20
I31
tp3470
(F-6.8923241666666666
F-22.196100833333333
tp3471
s(I3
I33
tp3472
(F-78.496311944444443
F-27.818139166666665
tp3473
s(I42
I12
tp3474
(F78.496311944444443
F27.818139166666665
tp3475
s(I23
I34
tp3476
(F1.4815122222222223
F-30.737868611111111
tp3477
s(I6
I30
tp3478
(F-51.061176111111109
F-19.471220555555554
tp3479
s(I32
I42
tp3480
(F57.814421666666661
F-60.073565000000002
tp3481
s(I31
I34
tp3482
(F26.073548611111111
F-30.737868611111111
tp3483
s(I35
I39
tp3484
(F54.80056305555555
F-47.166571944444442
tp3485
s(I18
I21
tp3486
(F-11.563037222222222
F3.8225536111111107
tp3487
s(I43
I39
tp3488
g9
s(I8
I3
tp3489
g9
s(I33
I13
tp3490
(F30.984412222222222
F24.974965277777777
tp3491
s(I14
I25
tp3492
(F-22.341831666666664
F-6.3793702777777774
tp3493
s(I36
I14
tp3494
(F40.392539722222224
F22.196100833333333
tp3495
s(I12
I23
tp3496
(F-27.825606944444445
F-1.2733444444444444
tp3497
s(I2
I29
tp3498
(F-72.117569444444442
F-16.791447222222224
tp3499
s(I27
I15
tp3500
(F12.247324166666665
F19.471220555555554
tp3501
s(I30
I8
tp3502
(F25.844399722222221
F40.12403472222222
tp3503
s(I0
I43
tp3504
g9
s(I20
I38
tp3505
(F-8.8173358333333329
F-43.542219166666662
tp3506
s(I3
I38
tp3507
g9
s(I6
I17
tp3508
(F-49.137011944444446
F14.149004444444444
tp3509
s(I28
I38
tp3510
(F19.707995555555556
F-43.542219166666662
tp3511
s(I32
I33
tp3512
(F28.515270277777777
F-27.818139166666665
tp3513
s(I31
I43
tp3514
(F66.430909444444453
F-65.659353333333343
tp3515
s(I35
I44
tp3516
g9
s(I18
I12
tp3517
(F-13.069541388888888
F27.818139166666665
tp3518
s(I40
I33
tp3519
(F61.571043611111115
F-27.818139166666665
tp3520
s(I21
I1
tp3521
(F-13.069541388888888
F72.853789999999989
tp3522
s(I43
I28
tp3523
(F69.987161388888893
F-14.149004444444444
tp3524
s(I8
I10
tp3525
(F-50.810255277777777
F33.748988611111109
tp3526
s(I33
I6
tp3527
(F43.346318888888888
F47.166571944444442
tp3528
s(I39
I40
tp3529
g9
s(I12
I14
tp3530
(F-30.2660625
F22.196100833333333
tp3531
s(I15
I3
tp3532
(F-41.924679999999995
F60.073565000000002
tp3533
s(I37
I18
tp3534
(F41.127233888888888
F11.536959166666666
tp3535
s(I2
I20
tp3536
(F-66.460918055555553
F6.3793702777777774
tp3537
s(I27
I4
tp3538
(F20.57241638888889
F55.307869444444442
tp3539
s(I0
I34
tp3540
g9
s(I6
I8
tp3541
(F-73.545104166666661
F40.12403472222222
tp3542
s(I31
I16
tp3543
(F23.241191111111114
F16.791447222222224
tp3544
s(I18
I7
tp3545
(F-16.016412777777777
F43.542219166666662
tp3546
s(I40
I40
tp3547
g9
s(I21
I10
tp3548
(F-4.5988186111111107
F33.748988611111109
tp3549
s(I43
I21
tp3550
(F65.943310277777783
F3.8225536111111107
tp3551
s(I7
I43
tp3552
g9
s(I11
I44
tp3553
g9
s(I33
I31
tp3554
(F30.2660625
F-22.196100833333333
tp3555
s(I39
I33
tp3556
(F56.01215638888889
F-27.818139166666665
tp3557
s(I44
I44
tp3558
g9
s(I9
I22
tp3559
(F-36.880512777777781
F1.2733444444444444
tp3560
s(I12
I5
tp3561
(F-47.941574999999993
F51.057558611111105
tp3562
s(I15
I8
tp3563
(F-25.844399722222221
F40.12403472222222
tp3564
s(I37
I27
tp3565
(F41.127233888888888
F-11.536959166666666
tp3566
s(I24
I0
tp3567
g9
s(I27
I29
tp3568
(F12.058322222222223
F-16.791447222222224
tp3569
s(I3
I20
tp3570
(F-60.699676666666662
F6.3793702777777774
tp3571
s(I25
I39
tp3572
(F9.4060486111111121
F-47.166571944444442
tp3573
s(I6
I3
tp3574
g9
s(I31
I25
tp3575
(F22.341831666666664
F-6.3793702777777774
tp3576
s(I21
I19
tp3577
(F-3.8697297222222224
F8.9490180555555554
tp3578
s(I43
I10
tp3579
g9
s(I7
I32
tp3580
(F-49.459792222222227
F-24.974965277777777
tp3581
s(I11
I37
tp3582
(F-41.945538611111111
F-40.12403472222222
tp3583
s(I33
I16
tp3584
(F29.173131944444446
F16.791447222222224
tp3585
s(I16
I40
tp3586
(F-27.362551388888889
F-51.057558611111105
tp3587
s(I44
I43
tp3588
g9
s(I9
I31
tp3589
(F-40.392539722222224
F-22.196100833333333
tp3590
s(I15
I17
tp3591
(F-20.106238055555558
F14.149004444444444
tp3592
s(I37
I4
tp3593
g9
s(I24
I7
tp3594
(F5.277001666666667
F43.542219166666662
tp3595
s(I27
I18
tp3596
(F11.778232222222224
F11.536959166666666
tp3597
s(I13
I27
tp3598
(F-25.526515555555555
F-11.536959166666666
tp3599
s(I3
I29
tp3600
(F-64.858967222222219
F-16.791447222222224
tp3601
s(I25
I40
tp3602
(F10.182067499999999
F-51.057558611111105
tp3603
s.