(dp1
(I31
I6
tp2
(F152.74467166666665
F34.419568055555551
tp3
s(I40
I22
tp4
(F91.636576944444457
F38.91349944444444
tp5
s(I21
I28
tp6
(F-15.255118611111111
F75.322841388888889
tp7
s(I4
I36
tp8
S'space'
p9
s(I43
I3
tp10
g9
s(I7
I25
tp11
(F-80.837653055555549
F45.749882222222226
tp12
s(I29
I44
tp13
(F16.82141
F3.3706188888888891
tp14
s(I33
I41
tp15
(F29.577838611111112
F19.016579444444446
tp16
s(I36
I34
tp17
(F49.573921388888891
F37.98384166666667
tp18
s(I44
I34
tp19
g9
s(I9
I0
tp20
g9
s(I34
I8
tp21
(F141.58194472222223
F34.661894444444442
tp22
s(I15
I30
tp23
(F-45
F61.874494166666665
tp24
s(I37
I13
tp25
(F123.23171111111111
F39.606439999999999
tp26
s(I24
I14
tp27
(F169.99202027777775
F67.442213333333342
tp28
s(I13
I20
tp29
(F-104.74356277777778
F64.11301777777777
tp30
s(I3
I2
tp31
g9
s(I28
I10
tp32
(F156.25050555555555
F52.630305277777779
tp33
s(I31
I15
tp34
(F131.42366555555554
F59.747436666666665
tp35
s(I1
I40
tp36
g9
s(I40
I29
tp37
(F69.623564722222213
F33.932501666666667
tp38
s(I21
I37
tp39
(F-5.9061411111111113
F49.617780555555555
tp40
s(I4
I35
tp41
(F-55.954062777777779
F7.107310833333333
tp42
s(I8
I38
tp43
(F-43.090847500000002
F19.381013055555556
tp44
s(I7
I22
tp45
(F-91.847610277777775
F46.429450833333334
tp46
s(I29
I37
tp47
(F24.145541944444442
F45.070735555555558
tp48
s(I33
I34
tp49
(F42.397437777777775
F46.2028575
tp50
s(I16
I38
tp51
(F-22.750976388888891
F41.667922222222217
tp52
s(I36
I41
tp53
g9
s(I41
I34
tp54
(F58.134022222222221
F14.503060833333333
tp55
s(I22
I12
tp56
(F-177.2736888888889
F62.147598333333335
tp57
s(I44
I25
tp58
(F83.367485277777774
F15.847105555555556
tp59
s(I9
I9
tp60
(F-135
F31.948059444444446
tp61
s(I34
I3
tp62
g9
s(I24
I21
tp63
(F135
F84.590067222222217
tp64
s(I13
I13
tp65
(F-135
F53.336633333333339
tp66
s(I0
I14
tp67
g9
s(I38
I31
tp68
(F61.26020472222222
F38.216923333333334
tp69
s(I3
I11
tp70
g9
s(I28
I1
tp71
(F165.65066805555557
F9.4858724999999993
tp72
s(I1
I33
tp73
g9
s(I40
I4
tp74
g9
s(I4
I42
tp75
g9
s(I7
I15
tp76
(F-115.82099194444444
F40.066606666666665
tp77
s(I16
I29
tp78
(F-45
F65.88618277777779
tp79
s(I41
I43
tp80
g9
s(I22
I7
tp81
(F-178.15238972222224
F46.429450833333334
tp82
s(I44
I16
tp83
(F106.82141
F3.3706188888888891
tp84
s(I12
I41
tp85
(F-29.577838611111112
F19.016579444444446
tp86
s(I34
I26
tp87
(F73.072486944444435
F57.706364166666667
tp88
s(I24
I28
tp89
(F15.255118611111111
F75.322841388888889
tp90
s(I10
I19
tp91
(F-105.64224638888889
F54.76562638888889
tp92
s(I13
I6
tp93
(F-150.06848805555555
F32.199586388888882
tp94
s(I0
I5
tp95
g9
s(I38
I22
tp96
(F91.847610277777775
F46.429450833333334
tp97
s(I25
I3
tp98
(F172.69424055555555
F29.101423055555557
tp99
s(I28
I24
tp100
(F74.744881388888885
F75.322841388888889
tp101
s(I40
I11
tp102
(F123.31063083333333
F21.458298611111111
tp103
s(I4
I17
tp104
(F-106.55707138888889
F30.930736388888889
tp105
s(I26
I34
tp106
(F16.927513055555558
F57.706364166666667
tp107
s(I7
I4
tp108
g9
s(I16
I20
tp109
(F-111.03751111111112
F71.96970972222222
tp110
s(I19
I1
tp111
(F-170.75388722222223
F14.503060833333333
tp112
s(I41
I44
tp113
g9
s(I22
I30
tp114
(F-3.8140747222222222
F70.483807222222225
tp115
s(I44
I15
tp116
g9
s(I12
I32
tp117
(F-47.862405277777782
F50.999693888888892
tp118
s(I34
I21
tp119
(F97.431408055555565
F58.973089999999999
tp120
s(I17
I43
tp121
(F-15.018360555555557
F19.381013055555556
tp122
s(I10
I26
tp123
(F-74.357753611111107
F54.76562638888889
tp124
s(I0
I28
tp125
g9
s(I38
I9
tp126
(F131.0548138888889
F23.999799722222225
tp127
s(I25
I4
tp128
(F172.30394833333335
F33.932501666666667
tp129
s(I28
I23
tp130
(F84.805571111111107
F75.791425277777776
tp131
s(I14
I38
tp132
(F-28.73979527777778
F38.216923333333334
tp133
s(I4
I24
tp134
(F-85.364536666666666
F34.419568055555551
tp135
s(I16
I11
tp136
(F-150.52411111111113
F54.0482175
tp137
s(I19
I6
tp138
(F-168.02386750000002
F41.439920277777773
tp139
s(I41
I21
tp140
(F94.635463333333334
F34.419568055555551
tp141
s(I22
I17
tp142
(F-174.80557111111113
F75.791425277777776
tp143
s(I5
I39
tp144
g9
s(I44
I6
tp145
g9
s(I34
I44
tp146
g9
s(I17
I44
tp147
(F-14.349331944444446
F9.4858724999999993
tp148
s(I37
I33
tp149
(F54.090276944444447
F37.281672499999999
tp150
s(I10
I5
tp151
(F-144.46232222222221
F17.095926388888888
tp152
s(I35
I23
tp153
(F87.709389999999999
F56.220392222222223
tp154
s(I0
I19
tp155
g9
s(I38
I0
tp156
g9
s(I25
I13
tp157
(F165.25643722222222
F64.11301777777777
tp158
s(I14
I41
tp159
(F-24.676863055555557
F25.196026111111113
tp160
s(I4
I7
tp161
g9
s(I29
I9
tp162
(F154.29004611111111
F48.246632500000004
tp163
s(I16
I2
tp164
(F-162.40757555555555
F17.095926388888888
tp165
s(I19
I15
tp166
(F-154.9831063888889
F68.417335000000008
tp167
s(I41
I30
tp168
(F67.932100555555564
F27.473952777777775
tp169
s(I22
I40
tp170
(F-1.6365769444444445
F38.91349944444444
tp171
s(I5
I32
tp172
(F-61.504361388888888
F27.749530277777779
tp173
s(I9
I37
tp174
(F-42.954591388888893
F28.295314166666667
tp175
s(I34
I39
tp176
(F34.875328333333336
F26.635721388888889
tp177
s(I17
I37
tp178
(F-20.772254722222222
F46.429450833333334
tp179
s(I37
I42
tp180
g9
s(I42
I39
tp181
g9
s(I23
I11
tp182
(F177.51044694444445
F59.229938055555557
tp183
s(I10
I12
tp184
(F-130.03025916666667
F43.485554444444446
tp185
s(I35
I28
tp186
(F66.250505555555549
F52.630305277777779
tp187
s(I25
I22
tp188
(F101.3099325
F83.493752777777772
tp189
s(I1
I13
tp190
g9
s(I39
I24
tp191
(F84.805571111111107
F42.577960555555556
tp192
s(I4
I14
tp193
(F-114.67686305555556
F25.196026111111113
tp194
s(I29
I2
tp195
(F162.40757555555555
F17.095926388888888
tp196
s(I19
I20
tp197
(F-125.53767777777777
F78.979349166666665
tp198
s(I2
I36
tp199
g9
s(I41
I7
tp200
g9
s(I22
I35
tp201
(F-2.29061
F56.220392222222223
tp202
s(I5
I41
tp203
g9
s(I30
I35
tp204
(F30.963756666666665
F49.617780555555555
tp205
s(I17
I30
tp206
(F-36.253837777777775
F65.584094166666659
tp207
s(I23
I0
tp208
g9
s(I32
I8
tp209
(F146.76828888888889
F39.606439999999999
tp210
s(I13
I42
tp211
(F-25.974393888888887
F15.410876388888889
tp212
s(I35
I5
tp213
(F144.46232222222221
F17.095926388888888
tp214
s(I25
I31
tp215
(F16.389540277777776
F66.810168611111109
tp216
s(I11
I28
tp217
(F-64.440034722222222
F55.489467500000003
tp218
s(I1
I6
tp219
g9
s(I39
I17
tp220
(F108.4349488888889
F39.375835277777782
tp221
s(I26
I6
tp222
(F168.02386750000002
F41.439920277777773
tp223
s(I29
I27
tp224
(F55.304846388888883
F69.429222500000009
tp225
s(I19
I29
tp226
(F-28.300755833333334
F70.846070833333329
tp227
s(I41
I8
tp228
g9
s(I5
I18
tp229
(F-104.42077305555556
F36.574717500000006
tp230
s(I30
I42
tp231
(F21.037511111111112
F21.788674166666667
tp232
s(I17
I23
tp233
(F-84.805571111111107
F75.791425277777776
tp234
s(I20
I4
tp235
(F-172.30394833333335
F33.932501666666667
tp236
s(I42
I41
tp237
g9
s(I23
I25
tp238
(F11.3099325
F83.493752777777772
tp239
s(I32
I15
tp240
(F128.29016305555555
F57.456277777777778
tp241
s(I13
I35
tp242
(F-37.234833888888893
F45.749882222222226
tp243
s(I35
I10
tp244
(F135
F38.216923333333334
tp245
s(I11
I21
tp246
(F-97.431408055555565
F58.973089999999999
tp247
s(I14
I2
tp248
(F-157.47943444444445
F9.4858724999999993
tp249
s(I1
I31
tp250
g9
s(I39
I14
tp251
(F117.25532833333334
F34.419568055555551
tp252
s(I26
I1
tp253
(F170.75388722222223
F14.503060833333333
tp254
s(I29
I20
tp255
(F111.03751111111112
F71.96970972222222
tp256
s(I15
I33
tp257
(F-35.537677777777773
F55.006160833333333
tp258
s(I19
I34
tp259
(F-16.927513055555558
F57.706364166666667
tp260
s(I5
I27
tp261
(F-75.579226944444443
F36.574717500000006
tp262
s(I27
I34
tp263
(F21.370622222222224
F56.711955555555555
tp264
s(I17
I8
tp265
(F-159.22774527777779
F46.429450833333334
tp266
s(I20
I3
tp267
(F-172.69424055555555
F29.101423055555557
tp268
s(I42
I16
tp269
(F108.4349488888889
F23.999799722222225
tp270
s(I23
I22
tp271
(F135
F88.199070833333337
tp272
s(I6
I42
tp273
g9
s(I32
I6
tp274
(F150.06848805555555
F32.199586388888882
tp275
s(I18
I41
tp276
(F-13.671307222222222
F32.199586388888882
tp277
s(I38
I44
tp278
g9
s(I11
I10
tp279
(F-137.38594416666666
F40.983220555555555
tp280
s(I14
I5
tp281
(F-154.09349194444445
F30.154947777777778
tp282
s(I36
I18
tp283
(F108.4349488888889
F50.768479444444445
tp284
s(I1
I16
tp285
(F-106.82141
F3.3706188888888891
tp286
s(I39
I7
tp287
g9
s(I26
I8
tp288
(F166.42956555555554
F48.47455305555556
tp289
s(I19
I43
tp290
(F-9.6887866666666671
F22.437735
tp291
s(I5
I4
tp292
g9
s(I30
I20
tp293
(F108.4349488888889
F69.429222500000009
tp294
s(I17
I1
tp295
(F-165.65066805555557
F9.4858724999999993
tp296
s(I20
I10
tp297
(F-168.6900675
F55.489467500000003
tp298
s(I42
I27
tp299
(F77.005383333333327
F27.196502777777777
tp300
s(I10
I32
tp301
(F-52.765166111111114
F45.749882222222226
tp302
s(I32
I29
tp303
(F55.619655277777781
F59.229938055555557
tp304
s(I18
I32
tp305
(F-25.346175833333334
F62.147598333333335
tp306
s(I38
I39
tp307
g9
s(I43
I40
tp308
g9
s(I8
I22
tp309
(F-91.974933888888884
F49.847258888888888
tp310
s(I11
I3
tp311
g9
s(I14
I12
tp312
(F-141.00900583333333
F53.100633611111114
tp313
s(I36
I25
tp314
(F79.508523055555557
F52.395937222222223
tp315
s(I26
I19
tp316
(F135
F77.291626111111114
tp317
s(I2
I8
tp318
g9
s(I24
I37
tp319
(F5.9061411111111113
F49.617780555555555
tp320
s(I5
I13
tp321
(F-118.49563861111112
F27.749530277777779
tp322
s(I30
I31
tp323
(F41.423665555555552
F59.747436666666665
tp324
s(I20
I17
tp325
(F-155.5560452777778
F74.424250833333332
tp326
s(I42
I2
tp327
g9
s(I23
I36
tp328
(F2.1210963888888887
F53.100633611111114
tp329
s(I6
I36
tp330
(F-50.710593055555556
F18.64611972222222
tp331
s(I10
I43
tp332
g9
s(I32
I20
tp333
(F104.74356277777778
F64.11301777777777
tp334
s(I31
I36
tp335
(F32.195733888888888
F44.844381111111112
tp336
s(I35
I33
tp337
(F49.969740833333333
F43.485554444444446
tp338
s(I18
I27
tp339
(F-45
F73.570059722222211
tp340
s(I43
I33
tp341
g9
s(I8
I29
tp342
(F-65.854458055555554
F45.070735555555558
tp343
s(I33
I11
tp344
(F137.60256222222222
F46.2028575
tp345
s(I14
I23
tp346
(F-86.633539444444452
F67.763482777777782
tp347
s(I36
I0
tp348
g9
s(I26
I26
tp349
(F45
F77.291626111111114
tp350
s(I12
I25
tp351
(F-76.607502222222223
F61.333416111111113
tp352
s(I2
I3
tp353
g9
s(I24
I44
tp354
(F3.9909130555555556
F16.688866944444445
tp355
s(I27
I9
tp356
(F161.56505111111113
F50.768479444444445
tp357
s(I30
I6
tp358
(F155.5560452777778
F36.337910000000001
tp359
s(I20
I24
tp360
(F-59.036243333333331
F82.5548675
tp361
s(I3
I32
tp362
(F-64.025606111111117
F15.410876388888889
tp363
s(I42
I13
tp364
(F115.9743938888889
F15.410876388888889
tp365
s(I6
I31
tp366
(F-62.744671666666669
F34.419568055555551
tp367
s(I28
I40
tp368
(F17.447188333333333
F35.384343333333334
tp369
s(I32
I43
tp370
g9
s(I35
I38
tp371
(F38.884496388888891
F27.749530277777779
tp372
s(I18
I18
tp373
(F-135
F73.570059722222211
tp374
s(I21
I7
tp375
(F-174.47245972222223
F46.2028575
tp376
s(I43
I38
tp377
g9
s(I8
I4
tp378
g9
s(I33
I12
tp379
(F135
F48.702695000000006
tp380
s(I14
I30
tp381
(F-48.576334444444448
F59.747436666666665
tp382
s(I36
I15
tp383
(F119.05460416666666
F46.656133611111109
tp384
s(I12
I16
tp385
(F-121.75948
F56.711955555555555
tp386
s(I15
I5
tp387
(F-156.80140944444446
F32.199586388888882
tp388
s(I2
I26
tp389
(F-80.311213333333328
F22.437735
tp390
s(I27
I14
tp391
(F152.10272888888889
F64.693971944444442
tp392
s(I30
I9
tp393
(F150.94539583333335
F46.656133611111109
tp394
s(I0
I44
tp395
g9
s(I20
I39
tp396
(F-8.615648055555555
F42.123305555555554
tp397
s(I3
I41
tp398
g9
s(I6
I22
tp399
(F-91.735704722222223
F42.805051666666664
tp400
s(I28
I39
tp401
(F18.43494888888889
F39.375835277777782
tp402
s(I32
I34
tp403
(F39.559668055555555
F48.47455305555556
tp404
s(I31
I42
tp405
(F23.552263611111112
F19.016579444444446
tp406
s(I18
I13
tp407
(F-154.65382416666668
F62.147598333333335
tp408
s(I40
I34
tp409
(F56.689369166666665
F21.458298611111111
tp410
s(I21
I0
tp411
g9
s(I43
I31
tp412
(F67.47943444444445
F9.4858724999999993
tp413
s(I8
I11
tp414
(F-128.41805527777777
F34.661894444444442
tp415
s(I33
I5
tp416
(F149.03624333333335
F24.900959722222222
tp417
s(I39
I43
tp418
g9
s(I12
I15
tp419
(F-125.53767777777777
F55.006160833333333
tp420
s(I15
I2
tp421
(F-159.9047688888889
F14.029168333333335
tp422
s(I37
I17
tp423
(F110.77225472222221
F46.429450833333334
tp424
s(I2
I21
tp425
(F-94.184916111111121
F23.999799722222225
tp426
s(I27
I7
tp427
(F163.81079361111111
F44.165202499999999
tp428
s(I0
I35
tp429
g9
s(I6
I9
tp430
(F-129.28940694444444
F18.64611972222222
tp431
s(I31
I19
tp432
(F112.380135
F65.88618277777779
tp433
s(I18
I4
tp434
(F-166.32869277777777
F32.199586388888882
tp435
s(I40
I41
tp436
g9
s(I21
I9
tp437
(F-173.65980833333333
F52.865197500000001
tp438
s(I43
I20
tp439
(F96.952957499999997
F23.38462361111111
tp440
s(I7
I42
tp441
g9
s(I33
I30
tp442
(F54.462322222222227
F55.006160833333333
tp443
s(I39
I32
tp444
(F60.068488055555562
F32.199586388888882
tp445
s(I9
I21
tp446
(F-96.340191666666655
F52.865197500000001
tp447
s(I12
I6
tp448
(F-147.52880777777779
F29.631065555555555
tp449
s(I15
I11
tp450
(F-146.88865805555554
F52.395937222222223
tp451
s(I37
I26
tp452
(F76.429565555555556
F48.47455305555556
tp453
s(I24
I1
tp454
(F176.00908694444445
F16.688866944444445
tp455
s(I27
I28
tp456
(F39.289406944444444
F71.588642777777778
tp457
s(I3
I23
tp458
(F-88.531199166666667
F29.893704166666666
tp459
s(I25
I38
tp460
(F9.1623469444444456
F45.749882222222226
tp461
s(I6
I0
tp462
g9
s(I31
I24
tp463
(F79.992020277777783
F67.442213333333342
tp464
s(I40
I16
tp465
(F110.37643527777777
F33.932501666666667
tp466
s(I21
I18
tp467
(F-161.56505111111113
F77.829676666666657
tp468
s(I43
I13
tp469
g9
s(I7
I35
tp470
(F-51.115503611111116
F27.749530277777779
tp471
s(I11
I36
tp472
(F-40.426078611111109
F37.98384166666667
tp473
s(I33
I23
tp474
(F87.273688888888884
F62.147598333333335
tp475
s(I16
I41
tp476
(F-19.358994166666669
F29.3669875
tp477
s(I36
I36
tp478
(F45
F31.948059444444446
tp479
s(I44
I36
tp480
g9
s(I9
I30
tp481
(F-60.945395833333329
F46.656133611111109
tp482
s(I34
I14
tp483
(F126.46923444444445
F50.537645555555557
tp484
s(I15
I16
tp485
(F-130.91438333333335
F63.826008055555562
tp486
s(I37
I3
tp487
g9
s(I24
I8
tp488
(F174.09385888888889
F49.617780555555555
tp489
s(I27
I21
tp490
(F108.4349488888889
F77.829676666666657
tp491
s(I13
I26
tp492
(F-69.775140555555552
F63.258516388888886
tp493
s(I3
I28
tp494
(F-74.248826388888887
F25.778769444444443
tp495
s(I28
I12
tp496
(F152.35402472222222
F58.209694722222224
tp497
s(I31
I1
tp498
g9
s(I40
I23
tp499
(F88.363423055555543
F38.91349944444444
tp500
s(I21
I27
tp501
(F-18.43494888888889
F77.829676666666657
tp502
s(I4
I37
tp503
g9
s(I43
I2
tp504
g9
s(I8
I32
tp505
(F-56.76828888888889
F39.606439999999999
tp506
s(I7
I24
tp507
(F-84.472459722222226
F46.2028575
tp508
s(I29
I43
tp509
(F17.592424444444443
F17.095926388888888
tp510
s(I33
I40
tp511
(F30.963756666666665
F24.900959722222222
tp512
s(I16
I32
tp513
(F-34.380344722222226
F59.229938055555557
tp514
s(I36
I35
tp515
(F47.202598055555555
F35.144258055555554
tp516
s(I22
I10
tp517
(F-177.70938999999998
F56.220392222222223
tp518
s(I44
I35
tp519
g9
s(I9
I7
tp520
(F-138.94518611111113
F23.999799722222225
tp521
s(I34
I9
tp522
(F139.57392138888889
F37.98384166666667
tp523
s(I15
I25
tp524
(F-71.565051111111103
F69.429222500000009
tp525
s(I37
I12
tp526
(F125.90972305555556
F37.281672499999999
tp527
s(I24
I15
tp528
(F168.6900675
F70.127108333333325
tp529
s(I13
I19
tp530
(F-110.22485944444445
F63.258516388888886
tp531
s(I0
I8
tp532
g9
s(I3
I5
tp533
g9
s(I28
I11
tp534
(F154.44003472222224
F55.489467500000003
tp535
s(I31
I14
tp536
(F135
F57.706364166666667
tp537
s(I40
I30
tp538
(F66.801409444444445
F32.199586388888882
tp539
s(I21
I36
tp540
(F-6.3401916666666667
F52.865197500000001
tp541
s(I4
I44
tp542
g9
s(I8
I39
tp543
(F-41.308613888888885
F12.509144444444445
tp544
s(I7
I17
tp545
(F-109.536655
F43.032004722222219
tp546
s(I29
I36
tp547
(F25.709953888888887
F48.246632500000004
tp548
s(I33
I33
tp549
(F45
F48.702695000000006
tp550
s(I16
I39
tp551
(F-21.501434444444445
F37.98384166666667
tp552
s(I36
I42
tp553
g9
s(I41
I33
tp554
(F60.422161388888888
F19.016579444444446
tp555
s(I22
I13
tp556
(F-176.9872125
F64.988091944444449
tp557
s(I44
I26
tp558
(F80.753887222222218
F14.503060833333333
tp559
s(I9
I8
tp560
(F-137.0454086111111
F28.295314166666667
tp561
s(I34
I0
tp562
g9
s(I24
I22
tp563
(F108.4349488888889
F85.97034166666667
tp564
s(I13
I12
tp565
(F-137.86240527777778
F50.999693888888892
tp566
s(I0
I15
tp567
g9
s(I38
I28
tp568
(F70.463345000000004
F43.032004722222219
tp569
s(I3
I10
tp570
g9
s(I28
I2
tp571
(F164.98163944444445
F19.381013055555556
tp572
s(I1
I32
tp573
g9
s(I40
I5
tp574
g9
s(I4
I43
tp575
g9
s(I7
I14
tp576
(F-118.73979527777777
F38.216923333333334
tp577
s(I16
I30
tp578
(F-40.914383333333333
F63.826008055555562
tp579
s(I41
I42
tp580
g9
s(I22
I4
tp581
(F-178.45184222222221
F34.661894444444442
tp582
s(I44
I17
tp583
(F104.34933194444444
F9.4858724999999993
tp584
s(I12
I42
tp585
(F-28.300755833333334
F10.159174722222222
tp586
s(I34
I27
tp587
(F68.629377777777776
F56.711955555555555
tp588
s(I24
I29
tp589
(F12.994616666666666
F72.753608611111105
tp590
s(I10
I16
tp591
(F-117.47443166666667
F51.231305277777778
tp592
s(I13
I5
tp593
(F-151.5043613888889
F27.749530277777779
tp594
s(I0
I6
tp595
g9
s(I38
I23
tp596
(F88.152389722222225
F46.429450833333334
tp597
s(I25
I2
tp598
(F173.0470425
F23.38462361111111
tp599
s(I28
I25
tp600
(F65.55604527777777
F74.424250833333332
tp601
s(I40
I12
tp602
(F120.96375666666667
F24.900959722222222
tp603
s(I4
I18
tp604
(F-103.67130722222223
F32.199586388888882
tp605
s(I26
I35
tp606
(F15.642246388888889
F54.76562638888889
tp607
s(I7
I7
tp608
(F-135
F13.034100277777778
tp609
s(I16
I21
tp610
(F-102.99461666666667
F72.753608611111105
tp611
s(I19
I0
tp612
g9
s(I41
I19
tp613
(F100.71312305555556
F33.195473055555553
tp614
s(I22
I31
tp615
(F-3.3664605555555558
F67.763482777777782
tp616
s(I44
I8
tp617
g9
s(I12
I33
tp618
(F-45
F48.702695000000006
tp619
s(I34
I18
tp620
(F111.37062222222221
F56.711955555555555
tp621
s(I17
I42
tp622
(F-15.751173611111112
F25.778769444444443
tp623
s(I37
I39
tp624
(F41.308613888888885
F12.509144444444445
tp625
s(I10
I27
tp626
(F-70.201123611111115
F53.810404166666665
tp627
s(I35
I17
tp628
(F113.74949444444445
F52.630305277777779
tp629
s(I0
I29
tp630
g9
s(I38
I14
tp631
(F118.73979527777777
F38.216923333333334
tp632
s(I25
I11
tp633
(F167.73522638888886
F58.463005000000003
tp634
s(I28
I16
tp635
(F139.76364166666667
F67.763482777777782
tp636
s(I14
I39
tp637
(F-27.255328333333335
F34.419568055555551
tp638
s(I4
I25
tp639
(F-82.303948333333324
F33.932501666666667
tp640
s(I26
I42
tp641
(F10.175510833333332
F28.295314166666667
tp642
s(I29
I15
tp643
(F139.08561666666668
F63.826008055555562
tp644
s(I16
I12
tp645
(F-148.24051999999998
F56.711955555555555
tp646
s(I19
I9
tp647
(F-165.46554499999999
F51.695789722222216
tp648
s(I41
I20
tp649
(F97.696051666666676
F33.932501666666667
tp650
s(I22
I22
tp651
(F-135
F88.199070833333337
tp652
s(I5
I38
tp653
g9
s(I44
I7
tp654
g9
s(I9
I35
tp655
(F-47.202598055555555
F35.144258055555554
tp656
s(I17
I35
tp657
(F-23.749494444444444
F52.630305277777779
tp658
s(I37
I32
tp659
(F56.76828888888889
F39.606439999999999
tp660
s(I23
I13
tp661
(F176.9872125
F64.988091944444449
tp662
s(I10
I2
tp663
g9
s(I35
I22
tp664
(F92.290610000000001
F56.220392222222223
tp665
s(I0
I20
tp666
g9
s(I38
I1
tp667
g9
s(I25
I12
tp668
(F166.60750222222222
F61.333416111111113
tp669
s(I1
I11
tp670
g9
s(I4
I0
tp671
g9
s(I29
I8
tp672
(F155.85445805555554
F45.070735555555558
tp673
s(I16
I3
tp674
(F-161.56505111111113
F23.999799722222225
tp675
s(I19
I14
tp676
(F-157.619865
F65.88618277777779
tp677
s(I2
I42
tp678
g9
s(I41
I29
tp679
(F70.641005833333338
F29.3669875
tp680
s(I22
I41
tp681
(F-1.5481577777777777
F34.661894444444442
tp682
s(I9
I36
tp683
(F-45
F31.948059444444446
tp684
s(I34
I36
tp685
(F40.426078611111109
F37.98384166666667
tp686
s(I17
I36
tp687
(F-22.166345833333331
F49.617780555555555
tp688
s(I37
I41
tp689
g9
s(I42
I36
tp690
g9
s(I23
I10
tp691
(F177.70938999999998
F56.220392222222223
tp692
s(I10
I13
tp693
(F-127.23483388888889
F45.749882222222226
tp694
s(I35
I31
tp695
(F55.784297777777773
F47.791394722222222
tp696
s(I25
I21
tp697
(F120.96375666666667
F82.5548675
tp698
s(I1
I12
tp699
g9
s(I39
I27
tp700
(F74.744881388888885
F40.525490833333329
tp701
s(I4
I15
tp702
(F-112.06789944444444
F27.473952777777775
tp703
s(I29
I1
tp704
(F163.17858999999999
F3.3706188888888891
tp705
s(I19
I23
tp706
(F-81.869897777777766
F80.959368888888889
tp707
s(I2
I37
tp708
g9
s(I41
I6
tp709
g9
s(I22
I32
tp710
(F-3.0127875
F64.988091944444449
tp711
s(I5
I40
tp712
g9
s(I30
I32
tp713
(F38.290163055555553
F57.456277777777778
tp714
s(I17
I29
tp715
(F-40.236358333333335
F67.763482777777782
tp716
s(I23
I3
tp717
(F178.53119916666668
F29.893704166666666
tp718
s(I32
I9
tp719
(F144.86580694444444
F42.805051666666664
tp720
s(I13
I41
tp721
(F-27.181111111111111
F22.437735
tp722
s(I35
I4
tp723
(F145.95406277777778
F7.107310833333333
tp724
s(I25
I30
tp725
(F18.43494888888889
F69.429222500000009
tp726
s(I11
I31
tp727
(F-53.530765555555554
F50.537645555555557
tp728
s(I1
I5
tp729
g9
s(I39
I16
tp730
(F111.50143444444444
F37.98384166666667
tp731
s(I26
I7
tp732
(F167.27564444444445
F45.070735555555558
tp733
s(I29
I26
tp734
(F61.699244166666666
F70.846070833333329
tp735
s(I19
I28
tp736
(F-32.471192222222221
F73.157469722222231
tp737
s(I41
I15
tp738
(F112.06789944444444
F27.473952777777775
tp739
s(I5
I17
tp740
(F-107.44718833333334
F35.384343333333334
tp741
s(I27
I44
tp742
(F11.821488333333333
F12.509144444444445
tp743
s(I30
I43
tp744
(F20.095231111111111
F14.029168333333335
tp745
s(I17
I22
tp746
(F-95.194428888888893
F75.791425277777776
tp747
s(I20
I5
tp748
(F-171.86989777777779
F38.216923333333334
tp749
s(I42
I22
tp750
(F91.468800833333333
F29.893704166666666
tp751
s(I23
I24
tp752
(F18.43494888888889
F85.97034166666667
tp753
s(I32
I0
tp754
g9
s(I13
I34
tp755
(F-39.559668055555555
F48.47455305555556
tp756
s(I35
I13
tp757
(F127.23483388888889
F45.749882222222226
tp758
s(I38
I42
tp759
g9
s(I11
I20
tp760
(F-102.26477361111111
F58.463005000000003
tp761
s(I14
I3
tp762
(F-156.4477363888889
F19.016579444444446
tp763
s(I36
I20
tp764
(F100.49147694444444
F52.395937222222223
tp765
s(I1
I30
tp766
g9
s(I39
I9
tp767
(F129.28940694444444
F18.64611972222222
tp768
s(I26
I14
tp769
(F157.619865
F65.88618277777779
tp770
s(I29
I19
tp771
(F118.30075583333333
F70.846070833333329
tp772
s(I15
I32
tp773
(F-38.290163055555553
F57.456277777777778
tp774
s(I19
I37
tp775
(F-13.570434444444444
F48.47455305555556
tp776
s(I5
I26
tp777
(F-78.690067499999998
F37.516235000000002
tp778
s(I27
I37
tp779
(F17.241459444444445
F47.564048055555553
tp780
s(I30
I18
tp781
(F120.96375666666667
F67.124492777777775
tp782
s(I17
I15
tp783
(F-143.74616222222221
F65.584094166666659
tp784
s(I20
I12
tp785
(F-166.60750222222222
F61.333416111111113
tp786
s(I42
I17
tp787
(F105.75117361111111
F25.778769444444443
tp788
s(I23
I17
tp789
(F174.80557111111113
F75.791425277777776
tp790
s(I6
I43
tp791
g9
s(I10
I38
tp792
(F-38.884496388888891
F27.749530277777779
tp793
s(I32
I7
tp794
(F148.49573333333333
F36.10049027777778
tp795
s(I18
I38
tp796
(F-16.189206388888888
F44.165202499999999
tp797
s(I8
I16
tp798
(F-114.14554194444445
F45.070735555555558
tp799
s(I11
I13
tp800
(F-129.55966805555556
F48.47455305555556
tp801
s(I14
I10
tp802
(F-145.78429777777777
F47.791394722222222
tp803
s(I36
I19
tp804
(F104.53445499999999
F51.695789722222216
tp805
s(I1
I23
tp806
(F-88.66778027777778
F17.095926388888888
tp807
s(I39
I6
tp808
g9
s(I26
I9
tp809
(F165.46554499999999
F51.695789722222216
tp810
s(I15
I41
tp811
(F-22.067899444444443
F27.473952777777775
tp812
s(I19
I42
tp813
(F-10.175510833333332
F28.295314166666667
tp814
s(I2
I14
tp815
(F-112.52056555555555
F9.4858724999999993
tp816
s(I5
I3
tp817
g9
s(I30
I21
tp818
(F101.3099325
F70.127108333333325
tp819
s(I17
I0
tp820
g9
s(I20
I11
tp821
(F-167.73522638888886
F58.463005000000003
tp822
s(I42
I24
tp823
(F85.601294722222221
F29.631065555555555
tp824
s(I6
I34
tp825
(F-55.124671666666664
F26.635721388888889
tp826
s(I10
I33
tp827
(F-49.969740833333333
F43.485554444444446
tp828
s(I32
I30
tp829
(F51.709836944444447
F57.456277777777778
tp830
s(I18
I33
tp831
(F-23.198590555555555
F59.488040277777777
tp832
s(I38
I36
tp833
(F48.945186111111106
F23.999799722222225
tp834
s(I43
I43
tp835
g9
s(I8
I23
tp836
(F-88.025066111111116
F49.847258888888888
tp837
s(I11
I2
tp838
g9
s(I14
I13
tp839
(F-138.17982999999998
F55.489467500000003
tp840
s(I36
I26
tp841
(F75.465545000000006
F51.695789722222216
tp842
s(I26
I16
tp843
(F151.69924416666666
F70.846070833333329
tp844
s(I2
I9
tp845
g9
s(I24
I38
tp846
(F5.5275402777777778
F46.2028575
tp847
s(I5
I12
tp848
(F-120.96375666666667
F24.900959722222222
tp849
s(I30
I28
tp850
(F53.746162222222225
F65.584094166666659
tp851
s(I20
I18
tp852
(F-150.94539583333335
F76.774050833333334
tp853
s(I42
I3
tp854
g9
s(I23
I39
tp855
(F1.7357047222222224
F42.805051666666664
tp856
s(I6
I37
tp857
(F-48.691386111111107
F12.509144444444445
tp858
s(I10
I40
tp859
(F-35.537677777777773
F17.095926388888888
tp860
s(I32
I21
tp861
(F98.97262666666667
F64.693971944444442
tp862
s(I31
I39
tp863
(F27.255328333333335
F34.419568055555551
tp864
s(I35
I32
tp865
(F52.765166111111114
F45.749882222222226
tp866
s(I18
I24
tp867
(F-71.565051111111103
F77.829676666666657
tp868
s(I43
I32
tp869
g9
s(I8
I30
tp870
(F-62.650124166666664
F43.485554444444446
tp871
s(I33
I10
tp872
(F139.96974083333333
F43.485554444444446
tp873
s(I14
I20
tp874
(F-106.38954027777778
F66.810168611111109
tp875
s(I36
I1
tp876
g9
s(I26
I27
tp877
(F37.874983611111112
F75.322841388888889
tp878
s(I12
I26
tp879
(F-71.565051111111103
F60.533811388888886
tp880
s(I2
I0
tp881
g9
s(I27
I8
tp882
(F162.75854055555556
F47.564048055555553
tp883
s(I30
I7
tp884
(F154.17900805555556
F40.066606666666665
tp885
s(I20
I25
tp886
(F-45
F80.959368888888889
tp887
s(I3
I35
tp888
g9
s(I42
I10
tp889
g9
s(I6
I28
tp890
(F-71.565051111111103
F39.375835277777782
tp891
s(I28
I41
tp892
(F16.55707138888889
F30.930736388888889
tp893
s(I32
I44
tp894
g9
s(I31
I44
tp895
g9
s(I35
I41
tp896
(F34.045937222222221
F7.107310833333333
tp897
s(I18
I19
tp898
(F-127.87498361111111
F75.322841388888889
tp899
s(I21
I6
tp900
(F-174.80557111111113
F42.577960555555556
tp901
s(I43
I25
tp902
(F83.047042500000003
F23.38462361111111
tp903
s(I8
I5
tp904
g9
s(I33
I3
tp905
(F151.69924416666666
F10.159174722222222
tp906
s(I14
I31
tp907
(F-45
F57.706364166666667
tp908
s(I36
I8
tp909
(F137.0454086111111
F28.295314166666667
tp910
s(I12
I17
tp911
(F-117.64597527777778
F58.209694722222224
tp912
s(I15
I4
tp913
(F-157.93210055555554
F27.473952777777775
tp914
s(I37
I23
tp915
(F88.025066111111116
F49.847258888888888
tp916
s(I2
I27
tp917
(F-77.619243055555543
F21.123773333333332
tp918
s(I27
I1
tp919
(F168.17851166666665
F12.509144444444445
tp920
s(I30
I14
tp921
(F138.57633444444443
F59.747436666666665
tp922
s(I20
I32
tp923
(F-14.743562777777777
F64.11301777777777
tp924
s(I3
I40
tp925
g9
s(I6
I23
tp926
(F-88.264295277777777
F42.805051666666664
tp927
s(I28
I32
tp928
(F30.068582777777777
F60.798813055555556
tp929
s(I32
I35
tp930
(F37.234833888888893
F45.749882222222226
tp931
s(I31
I21
tp932
(F100.00797972222222
F67.442213333333342
tp933
s(I18
I10
tp934
(F-160.20112361111109
F53.810404166666665
tp935
s(I40
I35
tp936
(F54.462322222222227
F17.095926388888888
tp937
s(I21
I15
tp938
(F-168.6900675
F70.127108333333325
tp939
s(I43
I30
tp940
(F69.904768888888896
F14.029168333333335
tp941
s(I8
I12
tp942
(F-125.90972305555556
F37.281672499999999
tp943
s(I7
I44
tp944
g9
s(I11
I41
tp945
(F-31.865977777777779
F14.503060833333333
tp946
s(I33
I4
tp947
(F150.42216138888887
F19.016579444444446
tp948
s(I39
I42
tp949
g9
s(I9
I19
tp950
(F-104.53445499999999
F51.695789722222216
tp951
s(I12
I8
tp952
(F-144.09027694444444
F37.281672499999999
tp953
s(I15
I13
tp954
(F-141.70983694444445
F57.456277777777778
tp955
s(I37
I16
tp956
(F114.14554194444445
F45.070735555555558
tp957
s(I2
I18
tp958
(F-102.38075694444444
F21.123773333333332
tp959
s(I27
I6
tp960
(F164.74488138888887
F40.525490833333329
tp961
s(I0
I36
tp962
g9
s(I3
I17
tp963
(F-105.75117361111111
F25.778769444444443
tp964
s(I6
I14
tp965
(F-117.25532833333334
F34.419568055555551
tp966
s(I31
I18
tp967
(F117.89727111111112
F64.693971944444442
tp968
s(I18
I5
tp969
(F-165.57922694444443
F36.574717500000006
tp970
s(I40
I42
tp971
g9
s(I21
I8
tp972
(F-174.09385888888889
F49.617780555555555
tp973
s(I43
I23
tp974
(F88.602818888888876
F24.302951944444445
tp975
s(I7
I37
tp976
(F-46.909152499999998
F19.381013055555556
tp977
s(I33
I29
tp978
(F58.240520000000004
F56.711955555555555
tp979
s(I39
I35
tp980
(F52.853313333333332
F23.07234861111111
tp981
s(I9
I20
tp982
(F-100.49147694444444
F52.395937222222223
tp983
s(I12
I7
tp984
(F-145.88552694444445
F33.687709722222216
tp985
s(I15
I10
tp986
(F-149.03624333333335
F49.617780555555555
tp987
s(I37
I25
tp988
(F80.217593055555554
F49.159703333333333
tp989
s(I24
I2
tp990
(F175.81508388888889
F23.999799722222225
tp991
s(I27
I31
tp992
(F27.89727111111111
F64.693971944444442
tp993
s(I3
I22
tp994
(F-91.468800833333333
F29.893704166666666
tp995
s(I25
I37
tp996
(F9.7824069444444461
F49.159703333333333
tp997
s(I6
I1
tp998
g9
s(I31
I27
tp999
(F62.10272888888889
F64.693971944444442
tp1000
s(I40
I17
tp1001
(F107.44718833333334
F35.384343333333334
tp1002
s(I21
I17
tp1003
(F-164.74488138888887
F75.322841388888889
tp1004
s(I43
I12
tp1005
g9
s(I7
I34
tp1006
(F-53.426968888888887
F30.930736388888889
tp1007
s(I11
I39
tp1008
(F-34.875328333333336
F26.635721388888889
tp1009
s(I33
I22
tp1010
(F92.726311111111116
F62.147598333333335
tp1011
s(I16
I42
tp1012
(F-18.43494888888889
F23.999799722222225
tp1013
s(I36
I37
tp1014
(F42.954591388888893
F28.295314166666667
tp1015
s(I44
I37
tp1016
g9
s(I9
I29
tp1017
(F-64.29004611111111
F48.246632500000004
tp1018
s(I34
I15
tp1019
(F123.11134194444443
F52.395937222222223
tp1020
s(I15
I19
tp1021
(F-115.01689361111112
F68.417335000000008
tp1022
s(I37
I2
tp1023
g9
s(I24
I9
tp1024
(F173.65980833333333
F52.865197500000001
tp1025
s(I27
I20
tp1026
(F119.05460416666666
F76.774050833333334
tp1027
s(I13
I25
tp1028
(F-75.256437222222218
F64.11301777777777
tp1029
s(I3
I31
tp1030
(F-66.447736388888899
F19.016579444444446
tp1031
s(I28
I13
tp1032
(F149.93141722222222
F60.798813055555556
tp1033
s(I31
I0
tp1034
g9
s(I40
I24
tp1035
(F85.100907499999991
F38.681734444444444
tp1036
s(I21
I26
tp1037
(F-23.198590555555555
F80.256400833333331
tp1038
s(I4
I38
tp1039
g9
s(I43
I5
tp1040
g9
s(I8
I33
tp1041
(F-54.090276944444447
F37.281672499999999
tp1042
s(I7
I27
tp1043
(F-73.810793611111109
F44.165202499999999
tp1044
s(I29
I42
tp1045
(F18.43494888888889
F23.999799722222225
tp1046
s(I16
I33
tp1047
(F-31.75948
F56.711955555555555
tp1048
s(I36
I44
tp1049
g9
s(I22
I11
tp1050
(F-177.51044694444445
F59.229938055555557
tp1051
s(I44
I28
tp1052
(F75.650668055555556
F9.4858724999999993
tp1053
s(I9
I6
tp1054
(F-140.71059305555553
F18.64611972222222
tp1055
s(I34
I6
tp1056
(F145.12467166666667
F26.635721388888889
tp1057
s(I15
I24
tp1058
(F-78.690067499999998
F70.127108333333325
tp1059
s(I37
I11
tp1060
(F128.41805527777777
F34.661894444444442
tp1061
s(I24
I16
tp1062
(F167.00538333333333
F72.753608611111105
tp1063
s(I13
I18
tp1064
(F-115.34617583333333
F62.147598333333335
tp1065
s(I0
I9
tp1066
g9
s(I38
I26
tp1067
(F77.275644444444438
F45.070735555555558
tp1068
s(I3
I4
tp1069
g9
s(I28
I4
tp1070
(F163.44292861111111
F30.930736388888889
tp1071
s(I31
I9
tp1072
(F147.80426611111113
F44.844381111111112
tp1073
s(I40
I31
tp1074
(F64.093491944444438
F30.154947777777778
tp1075
s(I21
I35
tp1076
(F-6.8427733333333327
F55.975921388888892
tp1077
s(I8
I40
tp1078
g9
s(I7
I16
tp1079
(F-112.75097638888889
F41.667922222222217
tp1080
s(I29
I35
tp1081
(F27.474431666666664
F51.231305277777778
tp1082
s(I33
I32
tp1083
(F47.862405277777782
F50.999693888888892
tp1084
s(I16
I24
tp1085
(F-77.005383333333327
F72.753608611111105
tp1086
s(I36
I43
tp1087
g9
s(I41
I32
tp1088
(F62.818888888888893
F22.437735
tp1089
s(I22
I2
tp1090
(F-178.60281888888889
F24.302951944444445
tp1091
s(I44
I27
tp1092
(F78.178511666666665
F12.509144444444445
tp1093
s(I9
I15
tp1094
(F-119.05460416666666
F46.656133611111109
tp1095
s(I12
I44
tp1096
g9
s(I34
I1
tp1097
g9
s(I24
I23
tp1098
(F71.565051111111103
F85.97034166666667
tp1099
s(I10
I22
tp1100
(F-92.290610000000001
F56.220392222222223
tp1101
s(I13
I11
tp1102
(F-140.44033194444444
F48.47455305555556
tp1103
s(I0
I0
tp1104
g9
s(I38
I29
tp1105
(F67.249023611111113
F41.667922222222217
tp1106
s(I3
I13
tp1107
(F-115.9743938888889
F15.410876388888889
tp1108
s(I28
I3
tp1109
(F164.24882638888889
F25.778769444444443
tp1110
s(I1
I39
tp1111
g9
s(I40
I6
tp1112
g9
s(I21
I44
tp1113
(F-3.9909130555555556
F16.688866944444445
tp1114
s(I4
I20
tp1115
(F-97.696051666666676
F33.932501666666667
tp1116
s(I7
I9
tp1117
(F-131.0548138888889
F23.999799722222225
tp1118
s(I16
I31
tp1119
(F-37.405356666666663
F61.603118888888893
tp1120
s(I41
I41
tp1121
g9
s(I22
I5
tp1122
(F-178.36342305555556
F38.91349944444444
tp1123
s(I44
I18
tp1124
(F101.82148833333333
F12.509144444444445
tp1125
s(I12
I43
tp1126
g9
s(I34
I24
tp1127
(F82.568591944444435
F58.973089999999999
tp1128
s(I24
I30
tp1129
(F11.3099325
F70.127108333333325
tp1130
s(I10
I17
tp1131
(F-113.74949444444445
F52.630305277777779
tp1132
s(I13
I4
tp1133
(F-152.81888888888889
F22.437735
tp1134
s(I0
I7
tp1135
g9
s(I38
I20
tp1136
(F99.162346944444451
F45.749882222222226
tp1137
s(I25
I1
tp1138
(F173.36748527777777
F15.847105555555556
tp1139
s(I28
I26
tp1140
(F57.528807777777779
F73.157469722222231
tp1141
s(I40
I13
tp1142
(F118.49563861111112
F27.749530277777779
tp1143
s(I4
I19
tp1144
(F-100.71312305555556
F33.195473055555553
tp1145
s(I26
I32
tp1146
(F20.224859444444444
F63.258516388888886
tp1147
s(I7
I6
tp1148
g9
s(I16
I22
tp1149
(F-94.398705277777779
F73.157469722222231
tp1150
s(I19
I3
tp1151
(F-169.82448916666667
F28.295314166666667
tp1152
s(I41
I18
tp1153
(F103.67130722222223
F32.199586388888882
tp1154
s(I22
I28
tp1155
(F-5.194428888888889
F75.791425277777776
tp1156
s(I44
I9
tp1157
g9
s(I12
I34
tp1158
(F-42.397437777777775
F46.2028575
tp1159
s(I34
I19
tp1160
(F106.92751305555556
F57.706364166666667
tp1161
s(I17
I41
tp1162
(F-16.55707138888889
F30.930736388888889
tp1163
s(I37
I38
tp1164
(F43.090847500000002
F19.381013055555556
tp1165
s(I10
I24
tp1166
(F-83.157226666666674
F55.975921388888892
tp1167
s(I35
I16
tp1168
(F117.47443166666667
F51.231305277777778
tp1169
s(I0
I30
tp1170
g9
s(I38
I15
tp1171
(F115.82099194444444
F40.066606666666665
tp1172
s(I25
I10
tp1173
(F168.6900675
F55.489467500000003
tp1174
s(I28
I17
tp1175
(F135
F69.775672499999999
tp1176
s(I14
I36
tp1177
(F-32.195733888888888
F44.844381111111112
tp1178
s(I4
I26
tp1179
(F-79.286876944444444
F33.195473055555553
tp1180
s(I26
I43
tp1181
(F9.6887866666666671
F22.437735
tp1182
s(I29
I14
tp1183
(F142.59464333333335
F61.603118888888893
tp1184
s(I16
I13
tp1185
(F-145.61965527777778
F59.229938055555557
tp1186
s(I19
I8
tp1187
(F-166.42956555555554
F48.47455305555556
tp1188
s(I41
I27
tp1189
(F76.328692777777775
F32.199586388888882
tp1190
s(I22
I23
tp1191
(F-45
F88.199070833333337
tp1192
s(I5
I37
tp1193
g9
s(I44
I0
tp1194
g9
s(I9
I34
tp1195
(F-49.573921388888891
F37.98384166666667
tp1196
s(I34
I42
tp1197
g9
s(I17
I34
tp1198
(F-25.559965277777778
F55.489467500000003
tp1199
s(I23
I12
tp1200
(F177.2736888888889
F62.147598333333335
tp1201
s(I10
I3
tp1202
g9
s(I35
I25
tp1203
(F78.690067499999998
F55.489467500000003
tp1204
s(I0
I21
tp1205
g9
s(I38
I6
tp1206
g9
s(I25
I19
tp1207
(F144.46232222222221
F78.979349166666665
tp1208
s(I1
I10
tp1209
g9
s(I39
I29
tp1210
(F68.498565555555558
F37.98384166666667
tp1211
s(I4
I1
tp1212
g9
s(I29
I7
tp1213
(F157.24902361111108
F41.667922222222217
tp1214
s(I16
I4
tp1215
(F-160.64100583333334
F29.3669875
tp1216
s(I19
I17
tp1217
(F-147.52880777777779
F73.157469722222231
tp1218
s(I2
I43
tp1219
g9
s(I41
I28
tp1220
(F73.442928611111114
F30.930736388888889
tp1221
s(I9
I43
tp1222
g9
s(I34
I37
tp1223
(F38.418055277777775
F34.661894444444442
tp1224
s(I17
I27
tp1225
(F-50.710593055555556
F71.588642777777778
tp1226
s(I37
I40
tp1227
g9
s(I42
I37
tp1228
g9
s(I23
I5
tp1229
(F178.36342305555556
F38.91349944444444
tp1230
s(I10
I10
tp1231
(F-135
F38.216923333333334
tp1232
s(I35
I30
tp1233
(F59.036243333333331
F49.617780555555555
tp1234
s(I25
I20
tp1235
(F135
F80.959368888888889
tp1236
s(I11
I25
tp1237
(F-77.73522638888889
F58.463005000000003
tp1238
s(I1
I3
tp1239
g9
s(I39
I26
tp1240
(F78.023867499999994
F41.439920277777773
tp1241
s(I4
I8
tp1242
g9
s(I29
I0
tp1243
g9
s(I19
I22
tp1244
(F-98.13010222222222
F80.959368888888889
tp1245
s(I2
I34
tp1246
g9
s(I41
I5
tp1247
g9
s(I22
I33
tp1248
(F-2.7263111111111114
F62.147598333333335
tp1249
s(I5
I23
tp1250
(F-88.363423055555543
F38.91349944444444
tp1251
s(I9
I44
tp1252
g9
s(I30
I33
tp1253
(F35.537677777777773
F55.006160833333333
tp1254
s(I17
I28
tp1255
(F-45
F69.775672499999999
tp1256
s(I42
I44
tp1257
g9
s(I23
I2
tp1258
(F178.60281888888889
F24.302951944444445
tp1259
s(I32
I10
tp1260
(F142.76516611111111
F45.749882222222226
tp1261
s(I13
I40
tp1262
(F-28.495638611111112
F27.749530277777779
tp1263
s(I35
I7
tp1264
(F141.11550361111111
F27.749530277777779
tp1265
s(I25
I29
tp1266
(F21.037511111111112
F71.96970972222222
tp1267
s(I11
I30
tp1268
(F-56.888658055555553
F52.395937222222223
tp1269
s(I1
I4
tp1270
g9
s(I39
I19
tp1271
(F101.97613250000001
F41.439920277777773
tp1272
s(I26
I4
tp1273
(F169.28687694444443
F33.195473055555553
tp1274
s(I29
I25
tp1275
(F68.962488888888885
F71.96970972222222
tp1276
s(I19
I31
tp1277
(F-22.380134999999999
F65.88618277777779
tp1278
s(I41
I14
tp1279
(F114.67686305555556
F25.196026111111113
tp1280
s(I5
I16
tp1281
(F-110.37643527777777
F33.932501666666667
tp1282
s(I30
I40
tp1283
(F23.198590555555555
F32.199586388888882
tp1284
s(I17
I21
tp1285
(F-105.25511861111112
F75.322841388888889
tp1286
s(I20
I6
tp1287
(F-171.38435194444443
F42.123305555555554
tp1288
s(I42
I23
tp1289
(F88.531199166666667
F29.893704166666666
tp1290
s(I23
I27
tp1291
(F6.3401916666666667
F78.391058888888892
tp1292
s(I32
I1
tp1293
g9
s(I13
I33
tp1294
(F-42.137594722222225
F50.999693888888892
tp1295
s(I35
I12
tp1296
(F130.03025916666667
F43.485554444444446
tp1297
s(I18
I44
tp1298
(F-11.821488333333333
F12.509144444444445
tp1299
s(I38
I43
tp1300
g9
s(I11
I23
tp1301
(F-87.510446944444439
F59.229938055555557
tp1302
s(I14
I0
tp1303
g9
s(I36
I21
tp1304
(F96.340191666666655
F52.865197500000001
tp1305
s(I1
I29
tp1306
(F-73.17859
F3.3706188888888891
tp1307
s(I39
I8
tp1308
(F131.30861388888891
F12.509144444444445
tp1309
s(I26
I15
tp1310
(F154.9831063888889
F68.417335000000008
tp1311
s(I29
I18
tp1312
(F124.69515361111111
F69.429222500000009
tp1313
s(I15
I35
tp1314
(F-30.963756666666665
F49.617780555555555
tp1315
s(I19
I36
tp1316
(F-14.534454999999999
F51.695789722222216
tp1317
s(I5
I25
tp1318
(F-81.869897777777766
F38.216923333333334
tp1319
s(I27
I36
tp1320
(F18.43494888888889
F50.768479444444445
tp1321
s(I30
I19
tp1322
(F115.01689361111112
F68.417335000000008
tp1323
s(I17
I14
tp1324
(F-147.09475694444444
F63.258516388888886
tp1325
s(I20
I13
tp1326
(F-165.25643722222222
F64.11301777777777
tp1327
s(I42
I30
tp1328
(F68.962488888888885
F21.788674166666667
tp1329
s(I23
I16
tp1330
(F175.60129472222221
F73.157469722222231
tp1331
s(I6
I40
tp1332
g9
s(I10
I39
tp1333
(F-37.146686666666668
F23.07234861111111
tp1334
s(I32
I24
tp1335
(F81.02737333333333
F64.693971944444442
tp1336
s(I18
I39
tp1337
(F-15.255118611111111
F40.525490833333329
tp1338
s(I38
I34
tp1339
(F53.426968888888887
F30.930736388888889
tp1340
s(I8
I17
tp1341
(F-110.77225472222221
F46.429450833333334
tp1342
s(I11
I12
tp1343
(F-132.39743777777778
F46.2028575
tp1344
s(I14
I11
tp1345
(F-143.53076555555558
F50.537645555555557
tp1346
s(I36
I28
tp1347
(F67.833654166666662
F49.617780555555555
tp1348
s(I1
I22
tp1349
(F-91.33221972222222
F17.095926388888888
tp1350
s(I39
I1
tp1351
g9
s(I26
I22
tp1352
(F98.13010222222222
F80.959368888888889
tp1353
s(I15
I40
tp1354
(F-23.198590555555555
F32.199586388888882
tp1355
s(I2
I15
tp1356
(F-110.0952311111111
F14.029168333333335
tp1357
s(I24
I32
tp1358
(F8.9726266666666668
F64.693971944444442
tp1359
s(I5
I2
tp1360
g9
s(I30
I26
tp1361
(F64.983106388888885
F68.417335000000008
tp1362
s(I17
I7
tp1363
(F-160.46334499999998
F43.032004722222219
tp1364
s(I20
I20
tp1365
(F-135
F80.959368888888889
tp1366
s(I42
I25
tp1367
(F82.694240555555552
F29.101423055555557
tp1368
s(I23
I41
tp1369
(F1.5481577777777777
F34.661894444444442
tp1370
s(I6
I35
tp1371
(F-52.853313333333332
F23.07234861111111
tp1372
s(I32
I31
tp1373
(F48.179829999999995
F55.489467500000003
tp1374
s(I18
I30
tp1375
(F-30.963756666666665
F67.124492777777775
tp1376
s(I38
I37
tp1377
(F46.909152499999998
F19.381013055555556
tp1378
s(I43
I42
tp1379
g9
s(I8
I24
tp1380
(F-84.093858888888889
F49.617780555555555
tp1381
s(I11
I5
tp1382
(F-146.68936916666667
F21.458298611111111
tp1383
s(I14
I18
tp1384
(F-117.89727111111112
F64.693971944444442
tp1385
s(I36
I27
tp1386
(F71.565051111111103
F50.768479444444445
tp1387
s(I26
I17
tp1388
(F147.52880777777779
F73.157469722222231
tp1389
s(I12
I28
tp1390
(F-62.354024722222221
F58.209694722222224
tp1391
s(I2
I6
tp1392
g9
s(I24
I39
tp1393
(F5.194428888888889
F42.577960555555556
tp1394
s(I5
I11
tp1395
(F-123.31063083333333
F21.458298611111111
tp1396
s(I30
I29
tp1397
(F49.085616666666667
F63.826008055555562
tp1398
s(I20
I19
tp1399
(F-144.46232222222221
F78.979349166666665
tp1400
s(I42
I0
tp1401
g9
s(I23
I38
tp1402
(F1.8476102777777779
F46.429450833333334
tp1403
s(I6
I26
tp1404
(F-78.023867499999994
F41.439920277777773
tp1405
s(I10
I41
tp1406
(F-34.045937222222221
F7.107310833333333
tp1407
s(I32
I22
tp1408
(F93.012787500000002
F64.988091944444449
tp1409
s(I31
I38
tp1410
(F28.73979527777778
F38.216923333333334
tp1411
s(I35
I35
tp1412
(F45
F38.216923333333334
tp1413
s(I18
I25
tp1414
(F-60.945395833333329
F76.774050833333334
tp1415
s(I43
I35
tp1416
g9
s(I8
I31
tp1417
(F-59.620873888888887
F41.667922222222217
tp1418
s(I33
I9
tp1419
(F142.12501638888889
F40.525490833333329
tp1420
s(I14
I21
tp1421
(F-100.00797972222222
F67.442213333333342
tp1422
s(I36
I2
tp1423
g9
s(I26
I24
tp1424
(F66.801409444444445
F80.256400833333331
tp1425
s(I12
I27
tp1426
(F-66.801409444444445
F59.488040277777777
tp1427
s(I2
I1
tp1428
g9
s(I27
I11
tp1429
(F158.62937777777779
F56.711955555555555
tp1430
s(I30
I4
tp1431
(F157.93210055555554
F27.473952777777775
tp1432
s(I20
I26
tp1433
(F-35.537677777777773
F78.979349166666665
tp1434
s(I3
I34
tp1435
g9
s(I42
I11
tp1436
g9
s(I6
I29
tp1437
(F-68.498565555555558
F37.98384166666667
tp1438
s(I28
I42
tp1439
(F15.751173611111112
F25.778769444444443
tp1440
s(I35
I40
tp1441
(F35.537677777777773
F17.095926388888888
tp1442
s(I18
I16
tp1443
(F-145.3048463888889
F69.429222500000009
tp1444
s(I21
I5
tp1445
(F-175.10090750000001
F38.681734444444444
tp1446
s(I43
I24
tp1447
(F85.815083888888893
F23.999799722222225
tp1448
s(I8
I6
tp1449
(F-138.69138611111111
F12.509144444444445
tp1450
s(I33
I2
tp1451
g9
s(I14
I28
tp1452
(F-57.094756944444448
F63.258516388888886
tp1453
s(I36
I9
tp1454
(F135
F31.948059444444446
tp1455
s(I39
I44
tp1456
g9
s(I12
I18
tp1457
(F-113.19859055555555
F59.488040277777777
tp1458
s(I15
I7
tp1459
(F-154.17900805555556
F40.066606666666665
tp1460
s(I37
I22
tp1461
(F91.974933888888884
F49.847258888888888
tp1462
s(I2
I24
tp1463
(F-85.815083888888893
F23.999799722222225
tp1464
s(I27
I0
tp1465
g9
s(I30
I15
tp1466
(F135
F61.874494166666665
tp1467
s(I20
I33
tp1468
(F-13.392497777777777
F61.333416111111113
tp1469
s(I3
I43
tp1470
g9
s(I6
I20
tp1471
(F-98.615648055555553
F42.123305555555554
tp1472
s(I28
I33
tp1473
(F27.645975277777776
F58.209694722222224
tp1474
s(I32
I36
tp1475
(F35.134193055555556
F42.805051666666664
tp1476
s(I31
I20
tp1477
(F106.38954027777778
F66.810168611111109
tp1478
s(I18
I11
tp1479
(F-158.62937777777779
F56.711955555555555
tp1480
s(I40
I36
tp1481
(F52.352379444444445
F10.792210833333334
tp1482
s(I21
I14
tp1483
(F-169.99202027777775
F67.442213333333342
tp1484
s(I43
I17
tp1485
(F105.01836055555556
F19.381013055555556
tp1486
s(I8
I13
tp1487
(F-123.23171111111111
F39.606439999999999
tp1488
s(I11
I40
tp1489
(F-33.310630833333327
F21.458298611111111
tp1490
s(I33
I27
tp1491
(F66.801409444444445
F59.488040277777777
tp1492
s(I39
I37
tp1493
(F48.691386111111107
F12.509144444444445
tp1494
s(I9
I18
tp1495
(F-108.4349488888889
F50.768479444444445
tp1496
s(I12
I9
tp1497
(F-142.12501638888889
F40.525490833333329
tp1498
s(I15
I12
tp1499
(F-144.46232222222221
F55.006160833333333
tp1500
s(I37
I31
tp1501
(F59.620873888888887
F41.667922222222217
tp1502
s(I2
I19
tp1503
(F-99.688786666666672
F22.437735
tp1504
s(I27
I25
tp1505
(F60.945395833333329
F76.774050833333334
tp1506
s(I0
I37
tp1507
g9
s(I20
I40
tp1508
(F-8.1301022222222219
F38.216923333333334
tp1509
s(I3
I16
tp1510
(F-108.4349488888889
F23.999799722222225
tp1511
s(I25
I35
tp1512
(F11.3099325
F55.489467500000003
tp1513
s(I6
I15
tp1514
(F-114.44395472222223
F36.337910000000001
tp1515
s(I31
I29
tp1516
(F52.594643333333337
F61.603118888888893
tp1517
s(I18
I2
tp1518
(F-167.61924305555556
F21.123773333333332
tp1519
s(I40
I43
tp1520
g9
s(I21
I23
tp1521
(F-71.565051111111103
F85.97034166666667
tp1522
s(I43
I22
tp1523
(F91.397181111111124
F24.302951944444445
tp1524
s(I7
I36
tp1525
(F-48.945186111111106
F23.999799722222225
tp1526
s(I11
I33
tp1527
(F-47.602562222222225
F46.2028575
tp1528
s(I33
I28
tp1529
(F62.354024722222221
F58.209694722222224
tp1530
s(I39
I34
tp1531
(F55.124671666666664
F26.635721388888889
tp1532
s(I9
I27
tp1533
(F-71.565051111111103
F50.768479444444445
tp1534
s(I12
I0
tp1535
g9
s(I15
I21
tp1536
(F-101.3099325
F70.127108333333325
tp1537
s(I37
I24
tp1538
(F84.093858888888889
F49.617780555555555
tp1539
s(I24
I3
tp1540
(F175.60129472222221
F29.631065555555555
tp1541
s(I27
I30
tp1542
(F30.963756666666665
F67.124492777777775
tp1543
s(I13
I31
tp1544
(F-48.179829999999995
F55.489467500000003
tp1545
s(I3
I25
tp1546
(F-82.694240555555552
F29.101423055555557
tp1547
s(I25
I36
tp1548
(F10.491476944444443
F52.395937222222223
tp1549
s(I6
I6
tp1550
g9
s(I31
I26
tp1551
(F67.61986499999999
F65.88618277777779
tp1552
s(I40
I18
tp1553
(F104.42077305555556
F36.574717500000006
tp1554
s(I21
I16
tp1555
(F-167.00538333333333
F72.753608611111105
tp1556
s(I43
I15
tp1557
(F110.0952311111111
F14.029168333333335
tp1558
s(I7
I29
tp1559
(F-67.249023611111113
F41.667922222222217
tp1560
s(I11
I38
tp1561
(F-36.573031111111113
F30.930736388888889
tp1562
s(I33
I21
tp1563
(F98.13010222222222
F61.874494166666665
tp1564
s(I16
I43
tp1565
(F-17.592424444444443
F17.095926388888888
tp1566
s(I36
I38
tp1567
(F41.054813888888887
F23.999799722222225
tp1568
s(I44
I38
tp1569
g9
s(I9
I28
tp1570
(F-67.833654166666662
F49.617780555555555
tp1571
s(I34
I12
tp1572
(F132.39743777777778
F46.2028575
tp1573
s(I15
I18
tp1574
(F-120.96375666666667
F67.124492777777775
tp1575
s(I37
I1
tp1576
g9
s(I24
I10
tp1577
(F173.15722666666667
F55.975921388888892
tp1578
s(I27
I23
tp1579
(F83.659808333333345
F78.391058888888892
tp1580
s(I13
I24
tp1581
(F-81.02737333333333
F64.693971944444442
tp1582
s(I3
I30
tp1583
(F-68.962488888888885
F21.788674166666667
tp1584
s(I28
I14
tp1585
(F147.09475694444444
F63.258516388888886
tp1586
s(I31
I3
tp1587
(F156.4477363888889
F19.016579444444446
tp1588
s(I40
I25
tp1589
(F81.869897777777766
F38.216923333333334
tp1590
s(I21
I25
tp1591
(F-30.963756666666665
F82.5548675
tp1592
s(I4
I39
tp1593
g9
s(I43
I4
tp1594
g9
s(I8
I34
tp1595
(F-51.581944722222225
F34.661894444444442
tp1596
s(I7
I26
tp1597
(F-77.275644444444438
F45.070735555555558
tp1598
s(I29
I41
tp1599
(F19.358994166666669
F29.3669875
tp1600
s(I16
I34
tp1601
(F-29.475888888888885
F54.0482175
tp1602
s(I22
I8
tp1603
(F-178.02506611111113
F49.847258888888888
tp1604
s(I44
I29
tp1605
(F73.17859
F3.3706188888888891
tp1606
s(I9
I5
tp1607
(F-142.35237944444444
F10.792210833333334
tp1608
s(I34
I7
tp1609
(F143.42696888888889
F30.930736388888889
tp1610
s(I15
I27
tp1611
(F-59.036243333333331
F67.124492777777775
tp1612
s(I37
I10
tp1613
(F130.76360527777777
F31.695445555555555
tp1614
s(I24
I17
tp1615
(F164.74488138888887
F75.322841388888889
tp1616
s(I13
I17
tp1617
(F-120.06858277777778
F60.798813055555556
tp1618
s(I0
I10
tp1619
g9
s(I38
I27
tp1620
(F73.810793611111109
F44.165202499999999
tp1621
s(I3
I7
tp1622
g9
s(I28
I5
tp1623
(F162.55281166666668
F35.384343333333334
tp1624
s(I31
I8
tp1625
(F149.62087388888889
F41.667922222222217
tp1626
s(I40
I0
tp1627
g9
s(I21
I34
tp1628
(F-7.4314080555555559
F58.973089999999999
tp1629
s(I8
I41
tp1630
g9
s(I7
I19
tp1631
(F-102.72435555555556
F45.070735555555558
tp1632
s(I29
I34
tp1633
(F29.475888888888885
F54.0482175
tp1634
s(I33
I39
tp1635
(F32.471192222222221
F29.631065555555555
tp1636
s(I16
I25
tp1637
(F-68.962488888888885
F71.96970972222222
tp1638
s(I41
I39
tp1639
g9
s(I22
I3
tp1640
(F-178.53119916666668
F29.893704166666666
tp1641
s(I44
I20
tp1642
(F96.632514722222211
F15.847105555555556
tp1643
s(I9
I14
tp1644
(F-122.1957338888889
F44.844381111111112
tp1645
s(I34
I30
tp1646
(F56.888658055555553
F52.395937222222223
tp1647
s(I24
I24
tp1648
(F45
F84.590067222222217
tp1649
s(I10
I23
tp1650
(F-87.709389999999999
F56.220392222222223
tp1651
s(I13
I10
tp1652
(F-142.76516611111111
F45.749882222222226
tp1653
s(I0
I1
tp1654
g9
s(I38
I18
tp1655
(F106.18920638888889
F44.165202499999999
tp1656
s(I3
I12
tp1657
(F-118.30075583333333
F10.159174722222222
tp1658
s(I28
I28
tp1659
(F45
F69.775672499999999
tp1660
s(I1
I38
tp1661
g9
s(I40
I7
tp1662
g9
s(I21
I43
tp1663
(F-4.1849161111111117
F23.999799722222225
tp1664
s(I4
I21
tp1665
(F-94.635463333333334
F34.419568055555551
tp1666
s(I26
I38
tp1667
(F12.724355555555556
F45.070735555555558
tp1668
s(I7
I8
tp1669
(F-133.0908475
F19.381013055555556
tp1670
s(I16
I16
tp1671
(F-135
F65.88618277777779
tp1672
s(I41
I40
tp1673
g9
s(I22
I26
tp1674
(F-8.1301022222222219
F80.959368888888889
tp1675
s(I44
I19
tp1676
(F99.246112777777782
F14.503060833333333
tp1677
s(I12
I36
tp1678
(F-37.874983611111112
F40.525490833333329
tp1679
s(I34
I25
tp1680
(F77.73522638888889
F58.463005000000003
tp1681
s(I24
I31
tp1682
(F10.007979722222222
F67.442213333333342
tp1683
s(I10
I30
tp1684
(F-59.036243333333331
F49.617780555555555
tp1685
s(I13
I3
tp1686
(F-154.02560611111113
F15.410876388888889
tp1687
s(I0
I24
tp1688
g9
s(I38
I21
tp1689
(F95.527540277777774
F46.2028575
tp1690
s(I25
I0
tp1691
g9
s(I28
I27
tp1692
(F50.710593055555556
F71.588642777777778
tp1693
s(I14
I34
tp1694
(F-36.469234444444446
F50.537645555555557
tp1695
s(I40
I14
tp1696
(F115.90650805555556
F30.154947777777778
tp1697
s(I4
I28
tp1698
(F-73.442928611111114
F30.930736388888889
tp1699
s(I26
I33
tp1700
(F18.43494888888889
F60.533811388888886
tp1701
s(I7
I1
tp1702
g9
s(I16
I23
tp1703
(F-85.601294722222221
F73.157469722222231
tp1704
s(I19
I2
tp1705
(F-170.31121333333334
F22.437735
tp1706
s(I41
I17
tp1707
(F106.55707138888889
F30.930736388888889
tp1708
s(I22
I29
tp1709
(F-4.3987052777777782
F73.157469722222231
tp1710
s(I44
I10
tp1711
g9
s(I12
I35
tp1712
(F-40.030259166666667
F43.485554444444446
tp1713
s(I34
I16
tp1714
(F119.47588888888889
F54.0482175
tp1715
s(I17
I40
tp1716
(F-17.447188333333333
F35.384343333333334
tp1717
s(I37
I37
tp1718
(F45
F24.302951944444445
tp1719
s(I10
I25
tp1720
(F-78.690067499999998
F55.489467500000003
tp1721
s(I35
I19
tp1722
(F105.64224638888889
F54.76562638888889
tp1723
s(I0
I31
tp1724
g9
s(I38
I12
tp1725
(F124.11447305555555
F33.687709722222216
tp1726
s(I25
I9
tp1727
(F169.50852305555554
F52.395937222222223
tp1728
s(I28
I18
tp1729
(F129.28940694444444
F71.588642777777778
tp1730
s(I14
I37
tp1731
(F-30.379126111111113
F41.667922222222217
tp1732
s(I4
I27
tp1733
(F-76.328692777777775
F32.199586388888882
tp1734
s(I26
I40
tp1735
(F11.3099325
F37.516235000000002
tp1736
s(I29
I13
tp1737
(F145.61965527777778
F59.229938055555557
tp1738
s(I16
I14
tp1739
(F-142.59464333333335
F61.603118888888893
tp1740
s(I19
I11
tp1741
(F-163.07248694444445
F57.706364166666667
tp1742
s(I41
I26
tp1743
(F79.286876944444444
F33.195473055555553
tp1744
s(I22
I20
tp1745
(F-168.6900675
F83.493752777777772
tp1746
s(I5
I36
tp1747
(F-52.352379444444445
F10.792210833333334
tp1748
s(I44
I1
tp1749
g9
s(I9
I33
tp1750
(F-52.125016388888888
F40.525490833333329
tp1751
s(I34
I43
tp1752
g9
s(I17
I33
tp1753
(F-27.645975277777776
F58.209694722222224
tp1754
s(I23
I15
tp1755
(F176.18592527777778
F70.483807222222225
tp1756
s(I10
I0
tp1757
g9
s(I35
I24
tp1758
(F83.157226666666674
F55.975921388888892
tp1759
s(I0
I22
tp1760
g9
s(I38
I7
tp1761
(F135
F13.034100277777778
tp1762
s(I25
I18
tp1763
(F150.94539583333335
F76.774050833333334
tp1764
s(I14
I44
tp1765
g9
s(I1
I9
tp1766
g9
s(I39
I28
tp1767
(F71.565051111111103
F39.375835277777782
tp1768
s(I4
I2
tp1769
g9
s(I29
I6
tp1770
(F158.49856555555553
F37.98384166666667
tp1771
s(I16
I5
tp1772
(F-159.62356472222223
F33.932501666666667
tp1773
s(I19
I16
tp1774
(F-151.69924416666666
F70.846070833333329
tp1775
s(I2
I40
tp1776
g9
s(I41
I3
tp1777
g9
s(I9
I42
tp1778
g9
s(I34
I34
tp1779
(F45
F43.712179722222224
tp1780
s(I17
I26
tp1781
(F-57.528807777777779
F73.157469722222231
tp1782
s(I42
I34
tp1783
g9
s(I23
I4
tp1784
(F178.45184222222221
F34.661894444444442
tp1785
s(I10
I11
tp1786
(F-132.61405583333334
F40.983220555555555
tp1787
s(I35
I1
tp1788
g9
s(I25
I27
tp1789
(F29.054604166666667
F76.774050833333334
tp1790
s(I11
I24
tp1791
(F-82.568591944444435
F58.973089999999999
tp1792
s(I1
I2
tp1793
g9
s(I39
I21
tp1794
(F95.194428888888893
F42.577960555555556
tp1795
s(I4
I9
tp1796
g9
s(I29
I31
tp1797
(F37.405356666666663
F61.603118888888893
tp1798
s(I19
I25
tp1799
(F-54.462322222222227
F78.979349166666665
tp1800
s(I2
I35
tp1801
g9
s(I41
I4
tp1802
g9
s(I22
I38
tp1803
(F-1.8476102777777779
F46.429450833333334
tp1804
s(I5
I22
tp1805
(F-91.636576944444457
F38.91349944444444
tp1806
s(I27
I41
tp1807
(F13.671307222222222
F32.199586388888882
tp1808
s(I30
I38
tp1809
(F25.820991944444444
F40.066606666666665
tp1810
s(I17
I19
tp1811
(F-122.47119222222223
F73.157469722222231
tp1812
s(I23
I29
tp1813
(F4.3987052777777782
F73.157469722222231
tp1814
s(I32
I11
tp1815
(F140.44033194444444
F48.47455305555556
tp1816
s(I13
I39
tp1817
(F-29.931511944444445
F32.199586388888882
tp1818
s(I35
I6
tp1819
(F142.85331333333332
F23.07234861111111
tp1820
s(I25
I28
tp1821
(F24.443954722222223
F74.424250833333332
tp1822
s(I11
I17
tp1823
(F-115.55996527777778
F55.489467500000003
tp1824
s(I1
I27
tp1825
(F-78.178511666666665
F12.509144444444445
tp1826
s(I39
I18
tp1827
(F105.25511861111112
F40.525490833333329
tp1828
s(I26
I5
tp1829
(F168.6900675
F37.516235000000002
tp1830
s(I29
I24
tp1831
(F77.005383333333327
F72.753608611111105
tp1832
s(I15
I37
tp1833
(F-27.349875833333332
F43.485554444444446
tp1834
s(I19
I30
tp1835
(F-25.016893611111112
F68.417335000000008
tp1836
s(I41
I13
tp1837
(F117.18111111111112
F22.437735
tp1838
s(I5
I31
tp1839
(F-64.093491944444438
F30.154947777777778
tp1840
s(I30
I41
tp1841
(F22.067899444444443
F27.473952777777775
tp1842
s(I17
I20
tp1843
(F-114.44395472222223
F74.424250833333332
tp1844
s(I20
I7
tp1845
(F-170.83765305555556
F45.749882222222226
tp1846
s(I42
I20
tp1847
(F97.305759444444448
F29.101423055555557
tp1848
s(I23
I26
tp1849
(F8.1301022222222219
F80.959368888888889
tp1850
s(I32
I2
tp1851
g9
s(I13
I32
tp1852
(F-45
F53.336633333333339
tp1853
s(I35
I15
tp1854
(F120.96375666666667
F49.617780555555555
tp1855
s(I38
I40
tp1856
g9
s(I11
I22
tp1857
(F-92.489553055555561
F59.229938055555557
tp1858
s(I14
I1
tp1859
g9
s(I36
I22
tp1860
(F92.121096388888887
F53.100633611111114
tp1861
s(I1
I28
tp1862
(F-75.650668055555556
F9.4858724999999993
tp1863
s(I39
I11
tp1864
(F124.87532833333333
F26.635721388888889
tp1865
s(I26
I12
tp1866
(F161.56505111111113
F60.533811388888886
tp1867
s(I29
I17
tp1868
(F130.23635833333333
F67.763482777777782
tp1869
s(I15
I34
tp1870
(F-33.111341944444447
F52.395937222222223
tp1871
s(I19
I39
tp1872
(F-11.9761325
F41.439920277777773
tp1873
s(I5
I24
tp1874
(F-85.100907499999991
F38.681734444444444
tp1875
s(I27
I39
tp1876
(F15.255118611111111
F40.525490833333329
tp1877
s(I30
I16
tp1878
(F130.91438333333335
F63.826008055555562
tp1879
s(I17
I13
tp1880
(F-149.93141722222222
F60.798813055555556
tp1881
s(I20
I14
tp1882
(F-163.6104597222222
F66.810168611111109
tp1883
s(I42
I31
tp1884
(F66.447736388888899
F19.016579444444446
tp1885
s(I23
I19
tp1886
(F171.86989777777779
F80.959368888888889
tp1887
s(I6
I41
tp1888
g9
s(I10
I36
tp1889
(F-42.797401944444445
F35.144258055555554
tp1890
s(I32
I25
tp1891
(F75.256437222222218
F64.11301777777777
tp1892
s(I18
I36
tp1893
(F-18.43494888888889
F50.768479444444445
tp1894
s(I38
I35
tp1895
(F51.115503611111116
F27.749530277777779
tp1896
s(I8
I18
tp1897
(F-107.24145944444444
F47.564048055555553
tp1898
s(I11
I15
tp1899
(F-123.11134194444443
F52.395937222222223
tp1900
s(I14
I8
tp1901
(F-149.62087388888889
F41.667922222222217
tp1902
s(I36
I29
tp1903
(F64.29004611111111
F48.246632500000004
tp1904
s(I1
I21
tp1905
(F-93.990913055555552
F16.688866944444445
tp1906
s(I39
I0
tp1907
g9
s(I26
I23
tp1908
(F81.869897777777766
F80.959368888888889
tp1909
s(I15
I43
tp1910
(F-20.095231111111111
F14.029168333333335
tp1911
s(I19
I44
tp1912
(F-9.2461127777777765
F14.503060833333333
tp1913
s(I2
I12
tp1914
g9
s(I24
I33
tp1915
(F8.1301022222222219
F61.874494166666665
tp1916
s(I5
I1
tp1917
g9
s(I30
I27
tp1918
(F59.036243333333331
F67.124492777777775
tp1919
s(I17
I6
tp1920
(F-161.56505111111113
F39.375835277777782
tp1921
s(I20
I21
tp1922
(F-120.96375666666667
F82.5548675
tp1923
s(I42
I6
tp1924
g9
s(I23
I40
tp1925
(F1.6365769444444445
F38.91349944444444
tp1926
s(I6
I32
tp1927
(F-60.068488055555562
F32.199586388888882
tp1928
s(I32
I16
tp1929
(F124.38034472222222
F59.229938055555557
tp1930
s(I18
I31
tp1931
(F-27.89727111111111
F64.693971944444442
tp1932
s(I8
I25
tp1933
(F-80.217593055555554
F49.159703333333333
tp1934
s(I11
I4
tp1935
(F-148.13402222222223
F14.503060833333333
tp1936
s(I14
I19
tp1937
(F-112.380135
F65.88618277777779
tp1938
s(I36
I4
tp1939
g9
s(I26
I30
tp1940
(F25.016893611111112
F68.417335000000008
tp1941
s(I12
I29
tp1942
(F-58.240520000000004
F56.711955555555555
tp1943
s(I2
I7
tp1944
g9
s(I24
I40
tp1945
(F4.8990924999999992
F38.681734444444444
tp1946
s(I5
I10
tp1947
(F-125.53767777777777
F17.095926388888888
tp1948
s(I30
I2
tp1949
(F159.9047688888889
F14.029168333333335
tp1950
s(I20
I28
tp1951
(F-24.443954722222223
F74.424250833333332
tp1952
s(I42
I1
tp1953
g9
s(I23
I33
tp1954
(F2.7263111111111114
F62.147598333333335
tp1955
s(I6
I27
tp1956
(F-74.744881388888885
F40.525490833333329
tp1957
s(I28
I44
tp1958
(F14.349331944444446
F9.4858724999999993
tp1959
s(I32
I23
tp1960
(F86.987212499999998
F64.988091944444449
tp1961
s(I31
I33
tp1962
(F38.990994166666667
F53.100633611111114
tp1963
s(I35
I34
tp1964
(F47.385944166666668
F40.983220555555555
tp1965
s(I18
I22
tp1966
(F-96.340191666666655
F78.391058888888892
tp1967
s(I43
I34
tp1968
g9
s(I8
I0
tp1969
g9
s(I33
I8
tp1970
(F144.09027694444444
F37.281672499999999
tp1971
s(I14
I26
tp1972
(F-67.61986499999999
F65.88618277777779
tp1973
s(I36
I3
tp1974
g9
s(I26
I25
tp1975
(F54.462322222222227
F78.979349166666665
tp1976
s(I12
I20
tp1977
(F-103.39249777777779
F61.333416111111113
tp1978
s(I2
I30
tp1979
(F-69.904768888888896
F14.029168333333335
tp1980
s(I27
I10
tp1981
(F160.20112361111109
F53.810404166666665
tp1982
s(I30
I5
tp1983
(F156.80140944444446
F32.199586388888882
tp1984
s(I0
I40
tp1985
g9
s(I20
I27
tp1986
(F-29.054604166666667
F76.774050833333334
tp1987
s(I3
I37
tp1988
g9
s(I42
I8
tp1989
g9
s(I6
I18
tp1990
(F-105.25511861111112
F40.525490833333329
tp1991
s(I28
I43
tp1992
(F15.018360555555557
F19.381013055555556
tp1993
s(I35
I43
tp1994
g9
s(I18
I17
tp1995
(F-140.71059305555553
F71.588642777777778
tp1996
s(I21
I4
tp1997
(F-175.36453666666665
F34.419568055555551
tp1998
s(I43
I27
tp1999
(F77.619243055555543
F21.123773333333332
tp2000
s(I8
I7
tp2001
(F-136.9091525
F19.381013055555556
tp2002
s(I33
I1
tp2003
g9
s(I14
I29
tp2004
(F-52.594643333333337
F61.603118888888893
tp2005
s(I36
I10
tp2006
(F132.79740194444443
F35.144258055555554
tp2007
s(I12
I19
tp2008
(F-108.4349488888889
F60.533811388888886
tp2009
s(I15
I6
tp2010
(F-155.5560452777778
F36.337910000000001
tp2011
s(I37
I21
tp2012
(F95.906141111111111
F49.617780555555555
tp2013
s(I2
I25
tp2014
(F-83.047042500000003
F23.38462361111111
tp2015
s(I27
I3
tp2016
(F167.00538333333333
F27.196502777777777
tp2017
s(I30
I12
tp2018
(F144.46232222222221
F55.006160833333333
tp2019
s(I20
I34
tp2020
(F-12.264773611111112
F58.463005000000003
tp2021
s(I3
I42
tp2022
g9
s(I6
I21
tp2023
(F-95.194428888888893
F42.577960555555556
tp2024
s(I28
I34
tp2025
(F25.559965277777778
F55.489467500000003
tp2026
s(I32
I37
tp2027
(F33.23171111111111
F39.606439999999999
tp2028
s(I31
I23
tp2029
(F86.633539444444452
F67.763482777777782
tp2030
s(I18
I8
tp2031
(F-162.75854055555556
F47.564048055555553
tp2032
s(I40
I37
tp2033
g9
s(I21
I13
tp2034
(F-171.02737333333334
F64.693971944444442
tp2035
s(I43
I16
tp2036
(F107.59242444444443
F17.095926388888888
tp2037
s(I8
I14
tp2038
(F-120.37912611111111
F41.667922222222217
tp2039
s(I11
I43
tp2040
g9
s(I33
I26
tp2041
(F71.565051111111103
F60.533811388888886
tp2042
s(I39
I36
tp2043
(F50.710593055555556
F18.64611972222222
tp2044
s(I9
I17
tp2045
(F-112.16634583333334
F49.617780555555555
tp2046
s(I12
I10
tp2047
(F-139.96974083333333
F43.485554444444446
tp2048
s(I15
I15
tp2049
(F-135
F61.874494166666665
tp2050
s(I37
I30
tp2051
(F62.650124166666664
F43.485554444444446
tp2052
s(I2
I16
tp2053
(F-107.59242444444443
F17.095926388888888
tp2054
s(I27
I24
tp2055
(F71.565051111111103
F77.829676666666657
tp2056
s(I0
I38
tp2057
g9
s(I20
I41
tp2058
(F-7.6960516666666665
F33.932501666666667
tp2059
s(I3
I19
tp2060
(F-100.17551083333333
F28.295314166666667
tp2061
s(I25
I34
tp2062
(F12.264773611111112
F58.463005000000003
tp2063
s(I6
I12
tp2064
(F-122.47119222222223
F29.631065555555555
tp2065
s(I31
I28
tp2066
(F57.094756944444448
F63.258516388888886
tp2067
s(I18
I3
tp2068
(F-167.00538333333333
F27.196502777777777
tp2069
s(I40
I44
tp2070
g9
s(I21
I22
tp2071
(F-108.4349488888889
F85.97034166666667
tp2072
s(I43
I9
tp2073
g9
s(I7
I39
tp2074
g9
s(I11
I32
tp2075
(F-50.440331944444438
F48.47455305555556
tp2076
s(I33
I19
tp2077
(F108.4349488888889
F60.533811388888886
tp2078
s(I44
I40
tp2079
g9
s(I9
I26
tp2080
(F-75.465545000000006
F51.695789722222216
tp2081
s(I12
I1
tp2082
g9
s(I15
I20
tp2083
(F-108.4349488888889
F69.429222500000009
tp2084
s(I37
I7
tp2085
(F136.9091525
F19.381013055555556
tp2086
s(I24
I4
tp2087
(F175.36453666666665
F34.419568055555551
tp2088
s(I27
I17
tp2089
(F140.71059305555553
F71.588642777777778
tp2090
s(I13
I30
tp2091
(F-51.709836944444447
F57.456277777777778
tp2092
s(I3
I24
tp2093
(F-85.601294722222221
F29.631065555555555
tp2094
s(I25
I43
tp2095
(F6.9529575000000001
F23.38462361111111
tp2096
s(I6
I7
tp2097
g9
s(I31
I5
tp2098
(F154.09349194444445
F30.154947777777778
tp2099
s(I40
I19
tp2100
(F101.3099325
F37.516235000000002
tp2101
s(I21
I31
tp2102
(F-10.007979722222222
F67.442213333333342
tp2103
s(I43
I14
tp2104
(F112.52056555555555
F9.4858724999999993
tp2105
s(I7
I28
tp2106
(F-70.463345000000004
F43.032004722222219
tp2107
s(I33
I20
tp2108
(F103.39249777777779
F61.333416111111113
tp2109
s(I16
I44
tp2110
(F-16.82141
F3.3706188888888891
tp2111
s(I36
I39
tp2112
(F39.289406944444444
F18.64611972222222
tp2113
s(I44
I39
tp2114
g9
s(I9
I3
tp2115
g9
s(I34
I13
tp2116
(F129.55966805555556
F48.47455305555556
tp2117
s(I15
I29
tp2118
(F-49.085616666666667
F63.826008055555562
tp2119
s(I37
I0
tp2120
g9
s(I24
I11
tp2121
(F172.56859194444445
F58.973089999999999
tp2122
s(I27
I22
tp2123
(F96.340191666666655
F78.391058888888892
tp2124
s(I13
I23
tp2125
(F-86.987212499999998
F64.988091944444449
tp2126
s(I3
I1
tp2127
g9
s(I25
I44
tp2128
(F6.6325147222222229
F15.847105555555556
tp2129
s(I28
I15
tp2130
(F143.74616222222221
F65.584094166666659
tp2131
s(I31
I2
tp2132
(F157.47943444444445
F9.4858724999999993
tp2133
s(I1
I43
tp2134
g9
s(I40
I26
tp2135
(F78.690067499999998
F37.516235000000002
tp2136
s(I21
I24
tp2137
(F-45
F84.590067222222217
tp2138
s(I4
I32
tp2139
(F-62.818888888888893
F22.437735
tp2140
s(I43
I7
tp2141
g9
s(I8
I35
tp2142
(F-49.236394722222222
F31.695445555555555
tp2143
s(I7
I21
tp2144
(F-95.527540277777774
F46.2028575
tp2145
s(I29
I40
tp2146
(F20.376435277777777
F33.932501666666667
tp2147
s(I16
I35
tp2148
(F-27.474431666666664
F51.231305277777778
tp2149
s(I22
I9
tp2150
(F-177.87890361111113
F53.100633611111114
tp2151
s(I44
I30
tp2152
g9
s(I9
I4
tp2153
g9
s(I34
I4
tp2154
(F148.13402222222223
F14.503060833333333
tp2155
s(I15
I26
tp2156
(F-64.983106388888885
F68.417335000000008
tp2157
s(I37
I9
tp2158
(F132.95459138888887
F28.295314166666667
tp2159
s(I24
I18
tp2160
(F161.56505111111113
F77.829676666666657
tp2161
s(I13
I16
tp2162
(F-124.38034472222222
F59.229938055555557
tp2163
s(I0
I11
tp2164
g9
s(I38
I24
tp2165
(F84.472459722222226
F46.2028575
tp2166
s(I3
I6
tp2167
g9
s(I28
I6
tp2168
(F161.56505111111113
F39.375835277777782
tp2169
s(I31
I11
tp2170
(F143.53076555555558
F50.537645555555557
tp2171
s(I1
I44
tp2172
g9
s(I40
I1
tp2173
g9
s(I21
I33
tp2174
(F-8.1301022222222219
F61.874494166666665
tp2175
s(I8
I42
tp2176
g9
s(I7
I18
tp2177
(F-106.18920638888889
F44.165202499999999
tp2178
s(I29
I33
tp2179
(F31.75948
F56.711955555555555
tp2180
s(I33
I38
tp2181
(F34.114473055555557
F33.687709722222216
tp2182
s(I16
I26
tp2183
(F-61.699244166666666
F70.846070833333329
tp2184
s(I41
I38
tp2185
g9
s(I22
I0
tp2186
g9
s(I44
I21
tp2187
(F93.990913055555552
F16.688866944444445
tp2188
s(I9
I13
tp2189
(F-125.13419305555556
F42.805051666666664
tp2190
s(I34
I31
tp2191
(F53.530765555555554
F50.537645555555557
tp2192
s(I24
I25
tp2193
(F30.963756666666665
F82.5548675
tp2194
s(I10
I20
tp2195
(F-101.3099325
F55.489467500000003
tp2196
s(I13
I9
tp2197
(F-144.86580694444444
F42.805051666666664
tp2198
s(I0
I2
tp2199
g9
s(I38
I19
tp2200
(F102.72435555555556
F45.070735555555558
tp2201
s(I3
I15
tp2202
(F-111.03751111111112
F21.788674166666667
tp2203
s(I28
I29
tp2204
(F40.236358333333335
F67.763482777777782
tp2205
s(I1
I37
tp2206
g9
s(I40
I8
tp2207
g9
s(I21
I42
tp2208
(F-4.3987052777777782
F29.631065555555555
tp2209
s(I4
I22
tp2210
(F-91.548157777777774
F34.661894444444442
tp2211
s(I26
I39
tp2212
(F11.9761325
F41.439920277777773
tp2213
s(I7
I11
tp2214
(F-126.57303111111111
F30.930736388888889
tp2215
s(I16
I17
tp2216
(F-130.23635833333333
F67.763482777777782
tp2217
s(I22
I27
tp2218
(F-6.3401916666666667
F78.391058888888892
tp2219
s(I44
I12
tp2220
g9
s(I12
I37
tp2221
(F-35.909723055555553
F37.281672499999999
tp2222
s(I34
I22
tp2223
(F92.489553055555561
F59.229938055555557
tp2224
s(I10
I31
tp2225
(F-55.784297777777773
F47.791394722222222
tp2226
s(I13
I2
tp2227
g9
s(I0
I25
tp2228
g9
s(I38
I10
tp2229
(F128.88449638888889
F27.749530277777779
tp2230
s(I25
I7
tp2231
(F170.83765305555556
F45.749882222222226
tp2232
s(I28
I20
tp2233
(F114.44395472222223
F74.424250833333332
tp2234
s(I14
I35
tp2235
(F-34.215702222222227
F47.791394722222222
tp2236
s(I40
I15
tp2237
(F113.19859055555555
F32.199586388888882
tp2238
s(I4
I29
tp2239
(F-70.641005833333338
F29.3669875
tp2240
s(I7
I0
tp2241
g9
s(I16
I8
tp2242
(F-155.85445805555554
F45.070735555555558
tp2243
s(I19
I5
tp2244
(F-168.6900675
F37.516235000000002
tp2245
s(I41
I16
tp2246
(F109.35899416666666
F29.3669875
tp2247
s(I22
I18
tp2248
(F-173.65980833333333
F78.391058888888892
tp2249
s(I44
I11
tp2250
g9
s(I34
I17
tp2251
(F115.55996527777778
F55.489467500000003
tp2252
s(I37
I36
tp2253
(F47.045408611111107
F28.295314166666667
tp2254
s(I10
I6
tp2255
(F-142.85331333333332
F23.07234861111111
tp2256
s(I35
I18
tp2257
(F109.79887638888889
F53.810404166666665
tp2258
s(I0
I16
tp2259
g9
s(I38
I13
tp2260
(F121.50426666666667
F36.10049027777778
tp2261
s(I25
I8
tp2262
(F170.21759305555557
F49.159703333333333
tp2263
s(I28
I19
tp2264
(F122.47119222222223
F73.157469722222231
tp2265
s(I14
I42
tp2266
(F-23.552263611111112
F19.016579444444446
tp2267
s(I4
I4
tp2268
g9
s(I26
I41
tp2269
(F10.713123055555554
F33.195473055555553
tp2270
s(I29
I12
tp2271
(F148.24051999999998
F56.711955555555555
tp2272
s(I16
I15
tp2273
(F-139.08561666666668
F63.826008055555562
tp2274
s(I19
I10
tp2275
(F-164.35775361111109
F54.76562638888889
tp2276
s(I41
I25
tp2277
(F82.303948333333324
F33.932501666666667
tp2278
s(I22
I21
tp2279
(F-161.56505111111113
F85.97034166666667
tp2280
s(I5
I35
tp2281
(F-54.462322222222227
F17.095926388888888
tp2282
s(I44
I2
tp2283
g9
s(I9
I32
tp2284
(F-54.865806944444444
F42.805051666666664
tp2285
s(I34
I40
tp2286
(F33.310630833333327
F21.458298611111111
tp2287
s(I17
I32
tp2288
(F-30.068582777777777
F60.798813055555556
tp2289
s(I23
I14
tp2290
(F176.63353944444444
F67.763482777777782
tp2291
s(I10
I1
tp2292
g9
s(I35
I27
tp2293
(F70.201123611111115
F53.810404166666665
tp2294
s(I0
I23
tp2295
g9
s(I38
I4
tp2296
g9
s(I25
I17
tp2297
(F155.5560452777778
F74.424250833333332
tp2298
s(I1
I8
tp2299
g9
s(I39
I31
tp2300
(F62.744671666666669
F34.419568055555551
tp2301
s(I4
I3
tp2302
g9
s(I29
I5
tp2303
(F159.62356472222223
F33.932501666666667
tp2304
s(I16
I6
tp2305
(F-158.49856555555553
F37.98384166666667
tp2306
s(I19
I19
tp2307
(F-135
F77.291626111111114
tp2308
s(I2
I41
tp2309
g9
s(I41
I2
tp2310
g9
s(I22
I44
tp2311
(F-1.3322197222222223
F17.095926388888888
tp2312
s(I5
I44
tp2313
g9
s(I9
I41
tp2314
g9
s(I34
I35
tp2315
(F42.614055833333332
F40.983220555555555
tp2316
s(I17
I25
tp2317
(F-65.55604527777777
F74.424250833333332
tp2318
s(I42
I35
tp2319
g9
s(I23
I7
tp2320
(F178.15238972222224
F46.429450833333334
tp2321
s(I10
I8
tp2322
(F-139.2363947222222
F31.695445555555555
tp2323
s(I35
I0
tp2324
g9
s(I25
I26
tp2325
(F35.537677777777773
F78.979349166666665
tp2326
s(I11
I27
tp2327
(F-68.629377777777776
F56.711955555555555
tp2328
s(I1
I1
tp2329
g9
s(I39
I20
tp2330
(F98.615648055555553
F42.123305555555554
tp2331
s(I4
I10
tp2332
(F-124.04593722222222
F7.107310833333333
tp2333
s(I29
I30
tp2334
(F40.914383333333333
F63.826008055555562
tp2335
s(I19
I24
tp2336
(F-66.801409444444445
F80.256400833333331
tp2337
s(I2
I32
tp2338
g9
s(I41
I11
tp2339
(F121.86597777777777
F14.503060833333333
tp2340
s(I22
I39
tp2341
(F-1.7357047222222224
F42.805051666666664
tp2342
s(I5
I21
tp2343
(F-94.899092500000009
F38.681734444444444
tp2344
s(I27
I40
tp2345
(F14.420773055555555
F36.574717500000006
tp2346
s(I30
I39
tp2347
(F24.443954722222223
F36.337910000000001
tp2348
s(I17
I18
tp2349
(F-129.28940694444444
F71.588642777777778
tp2350
s(I42
I42
tp2351
g9
s(I23
I28
tp2352
(F5.194428888888889
F75.791425277777776
tp2353
s(I32
I12
tp2354
(F137.86240527777778
F50.999693888888892
tp2355
s(I13
I38
tp2356
(F-31.504266666666666
F36.10049027777778
tp2357
s(I35
I9
tp2358
(F137.20259805555554
F35.144258055555554
tp2359
s(I11
I16
tp2360
(F-119.47588888888889
F54.0482175
tp2361
s(I1
I26
tp2362
(F-80.753887222222218
F14.503060833333333
tp2363
s(I39
I13
tp2364
(F119.93151194444445
F32.199586388888882
tp2365
s(I26
I2
tp2366
(F170.31121333333334
F22.437735
tp2367
s(I29
I23
tp2368
(F85.601294722222221
F73.157469722222231
tp2369
s(I15
I36
tp2370
(F-29.054604166666667
F46.656133611111109
tp2371
s(I19
I33
tp2372
(F-18.43494888888889
F60.533811388888886
tp2373
s(I41
I12
tp2374
(F119.5778386111111
F19.016579444444446
tp2375
s(I5
I30
tp2376
(F-66.801409444444445
F32.199586388888882
tp2377
s(I27
I33
tp2378
(F23.198590555555555
F59.488040277777777
tp2379
s(I17
I11
tp2380
(F-154.44003472222224
F55.489467500000003
tp2381
s(I20
I0
tp2382
g9
s(I42
I21
tp2383
(F94.398705277777779
F29.631065555555555
tp2384
s(I23
I21
tp2385
(F161.56505111111113
F85.97034166666667
tp2386
s(I32
I3
tp2387
(F154.02560611111113
F15.410876388888889
tp2388
s(I35
I14
tp2389
(F124.21570222222222
F47.791394722222222
tp2390
s(I18
I42
tp2391
(F-12.994616666666666
F27.196502777777777
tp2392
s(I38
I41
tp2393
g9
s(I11
I9
tp2394
(F-139.57392138888889
F37.98384166666667
tp2395
s(I14
I6
tp2396
(F-152.74467166666665
F34.419568055555551
tp2397
s(I36
I23
tp2398
(F87.878903611111099
F53.100633611111114
tp2399
s(I1
I19
tp2400
(F-99.246112777777782
F14.503060833333333
tp2401
s(I39
I10
tp2402
(F127.14668666666667
F23.07234861111111
tp2403
s(I26
I13
tp2404
(F159.77514055555557
F63.258516388888886
tp2405
s(I29
I16
tp2406
(F135
F65.88618277777779
tp2407
s(I19
I38
tp2408
(F-12.724355555555556
F45.070735555555558
tp2409
s(I5
I7
tp2410
g9
s(I27
I38
tp2411
(F16.189206388888888
F44.165202499999999
tp2412
s(I30
I17
tp2413
(F126.25383777777778
F65.584094166666659
tp2414
s(I17
I12
tp2415
(F-152.35402472222222
F58.209694722222224
tp2416
s(I20
I15
tp2417
(F-161.56505111111113
F69.429222500000009
tp2418
s(I42
I28
tp2419
(F74.248826388888887
F25.778769444444443
tp2420
s(I23
I18
tp2421
(F173.65980833333333
F78.391058888888892
tp2422
s(I10
I37
tp2423
(F-40.763605277777778
F31.695445555555555
tp2424
s(I32
I26
tp2425
(F69.775140555555552
F63.258516388888886
tp2426
s(I18
I37
tp2427
(F-17.241459444444445
F47.564048055555553
tp2428
s(I38
I32
tp2429
(F58.495733333333334
F36.10049027777778
tp2430
s(I8
I19
tp2431
(F-103.57043444444444
F48.47455305555556
tp2432
s(I11
I14
tp2433
(F-126.46923444444445
F50.537645555555557
tp2434
s(I14
I9
tp2435
(F-147.80426611111113
F44.844381111111112
tp2436
s(I36
I30
tp2437
(F60.945395833333329
F46.656133611111109
tp2438
s(I1
I20
tp2439
(F-96.632514722222211
F15.847105555555556
tp2440
s(I39
I3
tp2441
g9
s(I26
I20
tp2442
(F125.53767777777777
F78.979349166666665
tp2443
s(I15
I42
tp2444
(F-21.037511111111112
F21.788674166666667
tp2445
s(I2
I13
tp2446
g9
s(I24
I34
tp2447
(F7.4314080555555559
F58.973089999999999
tp2448
s(I5
I0
tp2449
g9
s(I30
I24
tp2450
(F78.690067499999998
F70.127108333333325
tp2451
s(I17
I5
tp2452
(F-162.55281166666668
F35.384343333333334
tp2453
s(I20
I22
tp2454
(F-101.3099325
F83.493752777777772
tp2455
s(I42
I7
tp2456
g9
s(I23
I43
tp2457
(F1.397181111111111
F24.302951944444445
tp2458
s(I6
I33
tp2459
(F-57.528807777777779
F29.631065555555555
tp2460
s(I10
I44
tp2461
g9
s(I32
I17
tp2462
(F120.06858277777778
F60.798813055555556
tp2463
s(I18
I28
tp2464
(F-39.289406944444444
F71.588642777777778
tp2465
s(I43
I44
tp2466
g9
s(I8
I26
tp2467
(F-76.429565555555556
F48.47455305555556
tp2468
s(I11
I7
tp2469
(F-143.42696888888889
F30.930736388888889
tp2470
s(I14
I16
tp2471
(F-127.40535666666668
F61.603118888888893
tp2472
s(I36
I5
tp2473
(F142.35237944444444
F10.792210833333334
tp2474
s(I26
I31
tp2475
(F22.380134999999999
F65.88618277777779
tp2476
s(I12
I30
tp2477
(F-54.462322222222227
F55.006160833333333
tp2478
s(I2
I4
tp2479
g9
s(I24
I41
tp2480
(F4.635463333333333
F34.419568055555551
tp2481
s(I5
I9
tp2482
(F-127.64762055555556
F10.792210833333334
tp2483
s(I30
I3
tp2484
(F158.96248888888888
F21.788674166666667
tp2485
s(I20
I29
tp2486
(F-21.037511111111112
F71.96970972222222
tp2487
s(I42
I14
tp2488
(F113.5522636111111
F19.016579444444446
tp2489
s(I23
I32
tp2490
(F3.0127875
F64.988091944444449
tp2491
s(I6
I24
tp2492
(F-84.805571111111107
F42.577960555555556
tp2493
s(I32
I40
tp2494
(F28.495638611111112
F27.749530277777779
tp2495
s(I31
I32
tp2496
(F41.820170000000005
F55.489467500000003
tp2497
s(I35
I37
tp2498
(F40.763605277777778
F31.695445555555555
tp2499
s(I18
I23
tp2500
(F-83.659808333333345
F78.391058888888892
tp2501
s(I43
I37
tp2502
g9
s(I8
I1
tp2503
g9
s(I33
I15
tp2504
(F125.53767777777777
F55.006160833333333
tp2505
s(I14
I27
tp2506
(F-62.10272888888889
F64.693971944444442
tp2507
s(I36
I12
tp2508
(F127.87498361111111
F40.525490833333329
tp2509
s(I12
I21
tp2510
(F-98.13010222222222
F61.874494166666665
tp2511
s(I2
I31
tp2512
(F-67.47943444444445
F9.4858724999999993
tp2513
s(I27
I13
tp2514
(F154.65382416666668
F62.147598333333335
tp2515
s(I30
I10
tp2516
(F149.03624333333335
F49.617780555555555
tp2517
s(I0
I41
tp2518
g9
s(I20
I36
tp2519
(F-10.491476944444443
F52.395937222222223
tp2520
s(I3
I36
tp2521
g9
s(I42
I9
tp2522
g9
s(I6
I19
tp2523
(F-101.97613250000001
F41.439920277777773
tp2524
s(I28
I36
tp2525
(F22.166345833333331
F49.617780555555555
tp2526
s(I31
I41
tp2527
(F24.676863055555557
F25.196026111111113
tp2528
s(I35
I42
tp2529
g9
s(I18
I14
tp2530
(F-152.10272888888889
F64.693971944444442
tp2531
s(I21
I3
tp2532
(F-175.60129472222221
F29.631065555555555
tp2533
s(I43
I26
tp2534
(F80.311213333333328
F22.437735
tp2535
s(I8
I8
tp2536
(F-135
F24.302951944444445
tp2537
s(I33
I0
tp2538
g9
s(I36
I11
tp2539
(F130.42607861111111
F37.98384166666667
tp2540
s(I12
I12
tp2541
(F-135
F48.702695000000006
tp2542
s(I15
I1
tp2543
g9
s(I37
I20
tp2544
(F99.782406944444446
F49.159703333333333
tp2545
s(I2
I22
tp2546
(F-91.397181111111124
F24.302951944444445
tp2547
s(I27
I2
tp2548
(F167.61924305555556
F21.123773333333332
tp2549
s(I30
I13
tp2550
(F141.70983694444445
F57.456277777777778
tp2551
s(I0
I32
tp2552
g9
s(I20
I35
tp2553
(F-11.3099325
F55.489467500000003
tp2554
s(I6
I10
tp2555
(F-127.14668666666667
F23.07234861111111
tp2556
s(I28
I35
tp2557
(F23.749494444444444
F52.630305277777779
tp2558
s(I32
I38
tp2559
(F31.504266666666666
F36.10049027777778
tp2560
s(I31
I22
tp2561
(F93.366460555555548
F67.763482777777782
tp2562
s(I18
I9
tp2563
(F-161.56505111111113
F50.768479444444445
tp2564
s(I40
I38
tp2565
g9
s(I21
I12
tp2566
(F-171.86989777777779
F61.874494166666665
tp2567
s(I43
I19
tp2568
(F99.688786666666672
F22.437735
tp2569
s(I8
I15
tp2570
(F-117.34987583333333
F43.485554444444446
tp2571
s(I7
I41
tp2572
g9
s(I11
I42
tp2573
g9
s(I33
I25
tp2574
(F76.607502222222223
F61.333416111111113
tp2575
s(I39
I39
tp2576
g9
s(I9
I16
tp2577
(F-115.70995388888889
F48.246632500000004
tp2578
s(I12
I11
tp2579
(F-137.60256222222222
F46.2028575
tp2580
s(I15
I14
tp2581
(F-138.57633444444443
F59.747436666666665
tp2582
s(I37
I29
tp2583
(F65.854458055555554
F45.070735555555558
tp2584
s(I2
I17
tp2585
(F-105.01836055555556
F19.381013055555556
tp2586
s(I27
I27
tp2587
(F45
F73.570059722222211
tp2588
s(I0
I39
tp2589
g9
s(I20
I42
tp2590
(F-7.305759444444444
F29.101423055555557
tp2591
s(I3
I18
tp2592
(F-102.99461666666667
F27.196502777777777
tp2593
s(I25
I33
tp2594
(F13.392497777777777
F61.333416111111113
tp2595
s(I6
I13
tp2596
(F-119.93151194444445
F32.199586388888882
tp2597
s(I31
I31
tp2598
(F45
F57.706364166666667
tp2599
s(I18
I0
tp2600
g9
s(I21
I21
tp2601
(F-135
F84.590067222222217
tp2602
s(I43
I8
tp2603
g9
s(I7
I38
tp2604
(F-45
F13.034100277777778
tp2605
s(I11
I35
tp2606
(F-42.614055833333332
F40.983220555555555
tp2607
s(I33
I18
tp2608
(F113.19859055555555
F59.488040277777777
tp2609
s(I44
I41
tp2610
g9
s(I9
I25
tp2611
(F-79.508523055555557
F52.395937222222223
tp2612
s(I12
I2
tp2613
g9
s(I15
I23
tp2614
(F-86.185925277777784
F70.483807222222225
tp2615
s(I37
I6
tp2616
(F138.69138611111111
F12.509144444444445
tp2617
s(I24
I5
tp2618
(F175.10090750000001
F38.681734444444444
tp2619
s(I27
I16
tp2620
(F145.3048463888889
F69.429222500000009
tp2621
s(I13
I29
tp2622
(F-55.619655277777781
F59.229938055555557
tp2623
s(I3
I27
tp2624
(F-77.005383333333327
F27.196502777777777
tp2625
s(I25
I42
tp2626
(F7.305759444444444
F29.101423055555557
tp2627
s(I6
I4
tp2628
g9
s(I31
I4
tp2629
(F155.32313694444443
F25.196026111111113
tp2630
s(I40
I20
tp2631
(F98.13010222222222
F38.216923333333334
tp2632
s(I21
I30
tp2633
(F-11.3099325
F70.127108333333325
tp2634
s(I43
I1
tp2635
g9
s(I7
I31
tp2636
(F-61.26020472222222
F38.216923333333334
tp2637
s(I33
I43
tp2638
g9
s(I36
I32
tp2639
(F54.865806944444444
F42.805051666666664
tp2640
s(I44
I32
tp2641
g9
s(I9
I2
tp2642
g9
s(I34
I10
tp2643
(F137.38594416666666
F40.983220555555555
tp2644
s(I15
I28
tp2645
(F-53.746162222222225
F65.584094166666659
tp2646
s(I37
I15
tp2647
(F117.34987583333333
F43.485554444444446
tp2648
s(I24
I12
tp2649
(F171.86989777777779
F61.874494166666665
tp2650
s(I13
I22
tp2651
(F-93.012787500000002
F64.988091944444449
tp2652
s(I3
I0
tp2653
g9
s(I28
I8
tp2654
(F159.22774527777779
F46.429450833333334
tp2655
s(I31
I13
tp2656
(F138.17982999999998
F55.489467500000003
tp2657
s(I1
I42
tp2658
g9
s(I40
I27
tp2659
(F75.579226944444443
F36.574717500000006
tp2660
s(I21
I39
tp2661
(F-5.194428888888889
F42.577960555555556
tp2662
s(I4
I33
tp2663
(F-60.422161388888888
F19.016579444444446
tp2664
s(I43
I6
tp2665
g9
s(I8
I36
tp2666
(F-47.045408611111107
F28.295314166666667
tp2667
s(I7
I20
tp2668
(F-99.162346944444451
F45.749882222222226
tp2669
s(I29
I39
tp2670
(F21.501434444444445
F37.98384166666667
tp2671
s(I33
I44
tp2672
g9
s(I16
I36
tp2673
(F-25.709953888888887
F48.246632500000004
tp2674
s(I22
I14
tp2675
(F-176.63353944444444
F67.763482777777782
tp2676
s(I44
I31
tp2677
g9
s(I9
I11
tp2678
(F-130.42607861111111
F37.98384166666667
tp2679
s(I34
I5
tp2680
(F146.68936916666667
F21.458298611111111
tp2681
s(I37
I8
tp2682
(F135
F24.302951944444445
tp2683
s(I24
I19
tp2684
(F156.80140944444446
F80.256400833333331
tp2685
s(I13
I15
tp2686
(F-128.29016305555555
F57.456277777777778
tp2687
s(I0
I12
tp2688
g9
s(I38
I25
tp2689
(F80.837653055555549
F45.749882222222226
tp2690
s(I3
I9
tp2691
g9
s(I28
I7
tp2692
(F160.46334499999998
F43.032004722222219
tp2693
s(I31
I10
tp2694
(F145.78429777777777
F47.791394722222222
tp2695
s(I1
I35
tp2696
g9
s(I40
I2
tp2697
g9
s(I21
I32
tp2698
(F-8.9726266666666668
F64.693971944444442
tp2699
s(I4
I40
tp2700
g9
s(I8
I43
tp2701
g9
s(I7
I13
tp2702
(F-121.50426666666667
F36.10049027777778
tp2703
s(I29
I32
tp2704
(F34.380344722222226
F59.229938055555557
tp2705
s(I33
I37
tp2706
(F35.909723055555553
F37.281672499999999
tp2707
s(I16
I27
tp2708
(F-55.304846388888883
F69.429222500000009
tp2709
s(I41
I37
tp2710
g9
s(I22
I1
tp2711
(F-178.66778027777778
F17.095926388888888
tp2712
s(I44
I22
tp2713
(F91.33221972222222
F17.095926388888888
tp2714
s(I9
I12
tp2715
(F-127.87498361111111
F40.525490833333329
tp2716
s(I34
I28
tp2717
(F64.440034722222222
F55.489467500000003
tp2718
s(I24
I26
tp2719
(F23.198590555555555
F80.256400833333331
tp2720
s(I10
I21
tp2721
(F-96.842773333333326
F55.975921388888892
tp2722
s(I13
I8
tp2723
(F-146.76828888888889
F39.606439999999999
tp2724
s(I0
I3
tp2725
g9
s(I38
I16
tp2726
(F112.75097638888889
F41.667922222222217
tp2727
s(I3
I14
tp2728
(F-113.5522636111111
F19.016579444444446
tp2729
s(I28
I30
tp2730
(F36.253837777777775
F65.584094166666659
tp2731
s(I1
I36
tp2732
g9
s(I40
I9
tp2733
(F127.64762055555556
F10.792210833333334
tp2734
s(I21
I41
tp2735
(F-4.635463333333333
F34.419568055555551
tp2736
s(I4
I23
tp2737
(F-88.451842222222226
F34.661894444444442
tp2738
s(I26
I36
tp2739
(F14.534454999999999
F51.695789722222216
tp2740
s(I7
I10
tp2741
(F-128.88449638888889
F27.749530277777779
tp2742
s(I16
I18
tp2743
(F-124.69515361111111
F69.429222500000009
tp2744
s(I22
I24
tp2745
(F-18.43494888888889
F85.97034166666667
tp2746
s(I44
I13
tp2747
g9
s(I12
I38
tp2748
(F-34.114473055555557
F33.687709722222216
tp2749
s(I34
I23
tp2750
(F87.510446944444439
F59.229938055555557
tp2751
s(I10
I28
tp2752
(F-66.250505555555549
F52.630305277777779
tp2753
s(I13
I1
tp2754
g9
s(I0
I26
tp2755
g9
s(I38
I11
tp2756
(F126.57303111111111
F30.930736388888889
tp2757
s(I25
I6
tp2758
(F171.38435194444443
F42.123305555555554
tp2759
s(I28
I21
tp2760
(F105.25511861111112
F75.322841388888889
tp2761
s(I14
I32
tp2762
(F-41.820170000000005
F55.489467500000003
tp2763
s(I4
I30
tp2764
(F-67.932100555555564
F27.473952777777775
tp2765
s(I7
I3
tp2766
g9
s(I16
I9
tp2767
(F-154.29004611111111
F48.246632500000004
tp2768
s(I19
I4
tp2769
(F-169.28687694444443
F33.195473055555553
tp2770
s(I41
I23
tp2771
(F88.451842222222226
F34.661894444444442
tp2772
s(I22
I19
tp2773
(F-171.86989777777779
F80.959368888888889
tp2774
s(I44
I4
tp2775
g9
s(I37
I35
tp2776
(F49.236394722222222
F31.695445555555555
tp2777
s(I10
I7
tp2778
(F-141.11550361111111
F27.749530277777779
tp2779
s(I35
I21
tp2780
(F96.842773333333326
F55.975921388888892
tp2781
s(I0
I17
tp2782
g9
s(I38
I2
tp2783
g9
s(I25
I15
tp2784
(F161.56505111111113
F69.429222500000009
tp2785
s(I14
I43
tp2786
(F-22.520565555555553
F9.4858724999999993
tp2787
s(I4
I5
tp2788
g9
s(I29
I11
tp2789
(F150.52411111111113
F54.0482175
tp2790
s(I16
I0
tp2791
g9
s(I19
I13
tp2792
(F-159.77514055555557
F63.258516388888886
tp2793
s(I41
I24
tp2794
(F85.364536666666666
F34.419568055555551
tp2795
s(I22
I42
tp2796
(F-1.4688008333333336
F29.893704166666666
tp2797
s(I5
I34
tp2798
(F-56.689369166666665
F21.458298611111111
tp2799
s(I44
I3
tp2800
g9
s(I9
I39
tp2801
(F-39.289406944444444
F18.64611972222222
tp2802
s(I34
I41
tp2803
(F31.865977777777779
F14.503060833333333
tp2804
s(I17
I39
tp2805
(F-18.43494888888889
F39.375835277777782
tp2806
s(I37
I44
tp2807
g9
s(I23
I9
tp2808
(F177.87890361111113
F53.100633611111114
tp2809
s(I10
I14
tp2810
(F-124.21570222222222
F47.791394722222222
tp2811
s(I35
I26
tp2812
(F74.357753611111107
F54.76562638888889
tp2813
s(I38
I5
tp2814
g9
s(I25
I16
tp2815
(F158.96248888888888
F71.96970972222222
tp2816
s(I1
I15
tp2817
g9
s(I39
I30
tp2818
(F65.55604527777777
F36.337910000000001
tp2819
s(I4
I12
tp2820
(F-119.5778386111111
F19.016579444444446
tp2821
s(I29
I4
tp2822
(F160.64100583333334
F29.3669875
tp2823
s(I16
I7
tp2824
(F-157.24902361111108
F41.667922222222217
tp2825
s(I19
I18
tp2826
(F-142.12501638888889
F75.322841388888889
tp2827
s(I2
I38
tp2828
g9
s(I41
I1
tp2829
g9
s(I5
I43
tp2830
g9
s(I9
I40
tp2831
(F-37.647620555555555
F10.792210833333334
tp2832
s(I34
I32
tp2833
(F50.440331944444438
F48.47455305555556
tp2834
s(I17
I24
tp2835
(F-74.744881388888885
F75.322841388888889
tp2836
s(I42
I32
tp2837
(F64.025606111111117
F15.410876388888889
tp2838
s(I23
I6
tp2839
(F178.26429527777779
F42.805051666666664
tp2840
s(I10
I9
tp2841
(F-137.20259805555554
F35.144258055555554
tp2842
s(I13
I44
tp2843
g9
s(I35
I3
tp2844
g9
s(I25
I25
tp2845
(F45
F80.959368888888889
tp2846
s(I11
I26
tp2847
(F-73.072486944444435
F57.706364166666667
tp2848
s(I1
I0
tp2849
g9
s(I39
I23
tp2850
(F88.264295277777777
F42.805051666666664
tp2851
s(I4
I11
tp2852
(F-121.86597777777777
F14.503060833333333
tp2853
s(I29
I29
tp2854
(F45
F65.88618277777779
tp2855
s(I19
I27
tp2856
(F-37.874983611111112
F75.322841388888889
tp2857
s(I2
I33
tp2858
g9
s(I41
I10
tp2859
(F124.04593722222222
F7.107310833333333
tp2860
s(I22
I36
tp2861
(F-2.1210963888888887
F53.100633611111114
tp2862
s(I5
I20
tp2863
(F-98.13010222222222
F38.216923333333334
tp2864
s(I27
I43
tp2865
(F12.380756944444444
F21.123773333333332
tp2866
s(I30
I36
tp2867
(F29.054604166666667
F46.656133611111109
tp2868
s(I17
I17
tp2869
(F-135
F69.775672499999999
tp2870
s(I42
I43
tp2871
g9
s(I23
I31
tp2872
(F3.3664605555555558
F67.763482777777782
tp2873
s(I32
I13
tp2874
(F135
F53.336633333333339
tp2875
s(I13
I37
tp2876
(F-33.23171111111111
F39.606439999999999
tp2877
s(I35
I8
tp2878
(F139.2363947222222
F31.695445555555555
tp2879
s(I11
I19
tp2880
(F-106.92751305555556
F57.706364166666667
tp2881
s(I1
I25
tp2882
(F-83.367485277777774
F15.847105555555556
tp2883
s(I39
I12
tp2884
(F122.47119222222223
F29.631065555555555
tp2885
s(I26
I3
tp2886
(F169.82448916666667
F28.295314166666667
tp2887
s(I29
I22
tp2888
(F94.398705277777779
F73.157469722222231
tp2889
s(I15
I39
tp2890
(F-24.443954722222223
F36.337910000000001
tp2891
s(I19
I32
tp2892
(F-20.224859444444444
F63.258516388888886
tp2893
s(I5
I29
tp2894
(F-69.623564722222213
F33.932501666666667
tp2895
s(I27
I32
tp2896
(F25.346175833333334
F62.147598333333335
tp2897
s(I17
I10
tp2898
(F-156.25050555555555
F52.630305277777779
tp2899
s(I20
I1
tp2900
(F-173.36748527777777
F15.847105555555556
tp2901
s(I42
I18
tp2902
(F102.99461666666667
F27.196502777777777
tp2903
s(I23
I20
tp2904
(F168.6900675
F83.493752777777772
tp2905
s(I32
I4
tp2906
(F152.81888888888889
F22.437735
tp2907
s(I18
I43
tp2908
(F-12.380756944444444
F21.123773333333332
tp2909
s(I11
I8
tp2910
(F-141.58194472222223
F34.661894444444442
tp2911
s(I14
I7
tp2912
(F-151.26020472222223
F38.216923333333334
tp2913
s(I36
I16
tp2914
(F115.70995388888889
F48.246632500000004
tp2915
s(I1
I18
tp2916
(F-101.82148833333333
F12.509144444444445
tp2917
s(I39
I5
tp2918
g9
s(I26
I10
tp2919
(F164.35775361111109
F54.76562638888889
tp2920
s(I15
I44
tp2921
g9
s(I19
I41
tp2922
(F-10.713123055555554
F33.195473055555553
tp2923
s(I5
I6
tp2924
g9
s(I30
I22
tp2925
(F93.814074722222216
F70.483807222222225
tp2926
s(I17
I3
tp2927
(F-164.24882638888889
F25.778769444444443
tp2928
s(I20
I8
tp2929
(F-170.21759305555557
F49.159703333333333
tp2930
s(I42
I29
tp2931
(F71.565051111111103
F23.999799722222225
tp2932
s(I10
I34
tp2933
(F-47.385944166666668
F40.983220555555555
tp2934
s(I32
I27
tp2935
(F64.653824166666666
F62.147598333333335
tp2936
s(I18
I34
tp2937
(F-21.370622222222224
F56.711955555555555
tp2938
s(I38
I33
tp2939
(F55.885526944444443
F33.687709722222216
tp2940
s(I8
I20
tp2941
(F-99.782406944444446
F49.159703333333333
tp2942
s(I11
I1
tp2943
g9
s(I14
I14
tp2944
(F-135
F57.706364166666667
tp2945
s(I36
I31
tp2946
(F57.804266111111112
F44.844381111111112
tp2947
s(I39
I2
tp2948
g9
s(I26
I21
tp2949
(F113.19859055555555
F80.256400833333331
tp2950
s(I2
I10
tp2951
g9
s(I24
I35
tp2952
(F6.8427733333333327
F55.975921388888892
tp2953
s(I5
I15
tp2954
(F-113.19859055555555
F32.199586388888882
tp2955
s(I30
I25
tp2956
(F71.565051111111103
F69.429222500000009
tp2957
s(I17
I4
tp2958
(F-163.44292861111111
F30.930736388888889
tp2959
s(I20
I23
tp2960
(F-78.690067499999998
F83.493752777777772
tp2961
s(I42
I4
tp2962
g9
s(I23
I42
tp2963
(F1.4688008333333336
F29.893704166666666
tp2964
s(I6
I38
tp2965
g9
s(I32
I18
tp2966
(F115.34617583333333
F62.147598333333335
tp2967
s(I18
I29
tp2968
(F-34.69515361111111
F69.429222500000009
tp2969
s(I8
I27
tp2970
(F-72.758540555555555
F47.564048055555553
tp2971
s(I11
I6
tp2972
(F-145.12467166666667
F26.635721388888889
tp2973
s(I14
I17
tp2974
(F-122.90524305555556
F63.258516388888886
tp2975
s(I36
I6
tp2976
(F140.71059305555553
F18.64611972222222
tp2977
s(I26
I28
tp2978
(F32.471192222222221
F73.157469722222231
tp2979
s(I12
I31
tp2980
(F-51.009005833333333
F53.100633611111114
tp2981
s(I2
I5
tp2982
g9
s(I24
I42
tp2983
(F4.3987052777777782
F29.631065555555555
tp2984
s(I5
I8
tp2985
g9
s(I30
I0
tp2986
g9
s(I20
I30
tp2987
(F-18.43494888888889
F69.429222500000009
tp2988
s(I42
I15
tp2989
(F111.03751111111112
F21.788674166666667
tp2990
s(I23
I35
tp2991
(F2.29061
F56.220392222222223
tp2992
s(I6
I25
tp2993
(F-81.384351944444447
F42.123305555555554
tp2994
s(I32
I41
tp2995
(F27.181111111111111
F22.437735
tp2996
s(I31
I35
tp2997
(F34.215702222222227
F47.791394722222222
tp2998
s(I35
I36
tp2999
(F42.797401944444445
F35.144258055555554
tp3000
s(I18
I20
tp3001
(F-119.05460416666666
F76.774050833333334
tp3002
s(I43
I36
tp3003
g9
s(I8
I2
tp3004
g9
s(I33
I14
tp3005
(F128.99099416666667
F53.100633611111114
tp3006
s(I14
I24
tp3007
(F-79.992020277777783
F67.442213333333342
tp3008
s(I36
I13
tp3009
(F125.13419305555556
F42.805051666666664
tp3010
s(I12
I22
tp3011
(F-92.726311111111116
F62.147598333333335
tp3012
s(I2
I28
tp3013
(F-74.98163944444444
F19.381013055555556
tp3014
s(I27
I12
tp3015
(F156.80140944444446
F59.488040277777777
tp3016
s(I30
I11
tp3017
(F146.88865805555554
F52.395937222222223
tp3018
s(I0
I42
tp3019
g9
s(I20
I37
tp3020
(F-9.7824069444444461
F49.159703333333333
tp3021
s(I3
I39
tp3022
g9
s(I6
I16
tp3023
(F-111.50143444444444
F37.98384166666667
tp3024
s(I28
I37
tp3025
(F20.772254722222222
F46.429450833333334
tp3026
s(I32
I32
tp3027
(F45
F53.336633333333339
tp3028
s(I31
I40
tp3029
(F25.906508055555555
F30.154947777777778
tp3030
s(I18
I15
tp3031
(F-149.03624333333335
F67.124492777777775
tp3032
s(I40
I32
tp3033
(F61.504361388888888
F27.749530277777779
tp3034
s(I21
I2
tp3035
(F-175.81508388888889
F23.999799722222225
tp3036
s(I43
I29
tp3037
(F72.407575555555567
F17.095926388888888
tp3038
s(I8
I9
tp3039
(F-132.95459138888887
F28.295314166666667
tp3040
s(I33
I7
tp3041
(F145.88552694444445
F33.687709722222216
tp3042
s(I39
I41
tp3043
g9
s(I12
I13
tp3044
(F-132.13759472222222
F50.999693888888892
tp3045
s(I15
I0
tp3046
g9
s(I37
I19
tp3047
(F103.57043444444444
F48.47455305555556
tp3048
s(I2
I23
tp3049
(F-88.602818888888876
F24.302951944444445
tp3050
s(I27
I5
tp3051
(F165.57922694444443
F36.574717500000006
tp3052
s(I0
I33
tp3053
g9
s(I20
I44
tp3054
(F-6.6325147222222229
F15.847105555555556
tp3055
s(I3
I44
tp3056
g9
s(I6
I11
tp3057
(F-124.87532833333333
F26.635721388888889
tp3058
s(I32
I39
tp3059
(F29.931511944444445
F32.199586388888882
tp3060
s(I31
I17
tp3061
(F122.90524305555556
F63.258516388888886
tp3062
s(I18
I6
tp3063
(F-164.74488138888887
F40.525490833333329
tp3064
s(I40
I39
tp3065
g9
s(I21
I11
tp3066
(F-172.56859194444445
F58.973089999999999
tp3067
s(I43
I18
tp3068
(F102.38075694444444
F21.123773333333332
tp3069
s(I7
I40
tp3070
g9
s(I33
I24
tp3071
(F81.869897777777766
F61.874494166666665
tp3072
s(I39
I38
tp3073
g9
s(I9
I23
tp3074
(F-87.878903611111099
F53.100633611111114
tp3075
s(I12
I4
tp3076
(F-150.42216138888887
F19.016579444444446
tp3077
s(I15
I9
tp3078
(F-150.94539583333335
F46.656133611111109
tp3079
s(I37
I28
tp3080
(F69.227745277777785
F46.429450833333334
tp3081
s(I27
I26
tp3082
(F52.125016388888888
F75.322841388888889
tp3083
s(I20
I43
tp3084
(F-6.9529575000000001
F23.38462361111111
tp3085
s(I3
I21
tp3086
(F-94.398705277777779
F29.631065555555555
tp3087
s(I25
I32
tp3088
(F14.743562777777777
F64.11301777777777
tp3089
s(I6
I2
tp3090
g9
s(I31
I30
tp3091
(F48.576334444444448
F59.747436666666665
tp3092
s(I18
I1
tp3093
(F-168.17851166666665
F12.509144444444445
tp3094
s(I21
I20
tp3095
(F-149.03624333333335
F82.5548675
tp3096
s(I43
I11
tp3097
g9
s(I7
I33
tp3098
(F-55.885526944444443
F33.687709722222216
tp3099
s(I11
I34
tp3100
(F-45
F43.712179722222224
tp3101
s(I33
I17
tp3102
(F117.64597527777778
F58.209694722222224
tp3103
s(I44
I42
tp3104
g9
s(I9
I24
tp3105
(F-83.659808333333345
F52.865197500000001
tp3106
s(I12
I3
tp3107
(F-151.69924416666666
F10.159174722222222
tp3108
s(I15
I22
tp3109
(F-93.814074722222216
F70.483807222222225
tp3110
s(I37
I5
tp3111
g9
s(I24
I6
tp3112
(F174.80557111111113
F42.577960555555556
tp3113
s(I27
I19
tp3114
(F127.87498361111111
F75.322841388888889
tp3115
s(I13
I28
tp3116
(F-59.931417222222223
F60.798813055555556
tp3117
s(I3
I26
tp3118
(F-79.824489166666666
F28.295314166666667
tp3119
s(I25
I41
tp3120
(F7.6960516666666665
F33.932501666666667
tp3121
s(I6
I5
tp3122
g9
s(I31
I7
tp3123
(F151.26020472222223
F38.216923333333334
tp3124
s(I40
I21
tp3125
(F94.899092500000009
F38.681734444444444
tp3126
s(I21
I29
tp3127
(F-12.994616666666666
F72.753608611111105
tp3128
s(I43
I0
tp3129
g9
s(I7
I30
tp3130
(F-64.179008055555556
F40.066606666666665
tp3131
s(I33
I42
tp3132
(F28.300755833333334
F10.159174722222222
tp3133
s(I36
I33
tp3134
(F52.125016388888888
F40.525490833333329
tp3135
s(I44
I33
tp3136
g9
s(I9
I1
tp3137
g9
s(I34
I11
tp3138
(F135
F43.712179722222224
tp3139
s(I15
I31
tp3140
(F-41.423665555555552
F59.747436666666665
tp3141
s(I37
I14
tp3142
(F120.37912611111111
F41.667922222222217
tp3143
s(I24
I13
tp3144
(F171.02737333333334
F64.693971944444442
tp3145
s(I13
I21
tp3146
(F-98.97262666666667
F64.693971944444442
tp3147
s(I3
I3
tp3148
g9
s(I28
I9
tp3149
(F157.83365416666669
F49.617780555555555
tp3150
s(I31
I12
tp3151
(F141.00900583333333
F53.100633611111114
tp3152
s(I1
I41
tp3153
g9
s(I40
I28
tp3154
(F72.55281166666667
F35.384343333333334
tp3155
s(I21
I38
tp3156
(F-5.5275402777777778
F46.2028575
tp3157
s(I4
I34
tp3158
(F-58.134022222222221
F14.503060833333333
tp3159
s(I8
I37
tp3160
(F-45
F24.302951944444445
tp3161
s(I7
I23
tp3162
(F-88.152389722222225
F46.429450833333334
tp3163
s(I29
I38
tp3164
(F22.750976388888891
F41.667922222222217
tp3165
s(I33
I35
tp3166
(F40.030259166666667
F43.485554444444446
tp3167
s(I16
I37
tp3168
(F-24.145541944444442
F45.070735555555558
tp3169
s(I36
I40
tp3170
(F37.647620555555555
F10.792210833333334
tp3171
s(I41
I35
tp3172
(F55.954062777777779
F7.107310833333333
tp3173
s(I22
I15
tp3174
(F-176.18592527777778
F70.483807222222225
tp3175
s(I44
I24
tp3176
(F86.009086944444448
F16.688866944444445
tp3177
s(I9
I10
tp3178
(F-132.79740194444443
F35.144258055555554
tp3179
s(I34
I2
tp3180
g9
s(I24
I20
tp3181
(F149.03624333333335
F82.5548675
tp3182
s(I13
I14
tp3183
(F-131.82016999999999
F55.489467500000003
tp3184
s(I0
I13
tp3185
g9
s(I38
I30
tp3186
(F64.179008055555556
F40.066606666666665
tp3187
s(I3
I8
tp3188
g9
s(I28
I0
tp3189
g9
s(I1
I34
tp3190
g9
s(I40
I3
tp3191
g9
s(I4
I41
tp3192
g9
s(I8
I44
tp3193
g9
s(I7
I12
tp3194
(F-124.11447305555555
F33.687709722222216
tp3195
s(I33
I36
tp3196
(F37.874983611111112
F40.525490833333329
tp3197
s(I16
I28
tp3198
(F-49.763641666666665
F67.763482777777782
tp3199
s(I41
I36
tp3200
g9
s(I22
I6
tp3201
(F-178.26429527777779
F42.805051666666664
tp3202
s(I44
I23
tp3203
(F88.66778027777778
F17.095926388888888
tp3204
s(I12
I40
tp3205
(F-30.963756666666665
F24.900959722222222
tp3206
s(I34
I29
tp3207
(F60.524111111111111
F54.0482175
tp3208
s(I24
I27
tp3209
(F18.43494888888889
F77.829676666666657
tp3210
s(I10
I18
tp3211
(F-109.79887638888889
F53.810404166666665
tp3212
s(I13
I7
tp3213
(F-148.49573333333333
F36.10049027777778
tp3214
s(I0
I4
tp3215
g9
s(I38
I17
tp3216
(F109.536655
F43.032004722222219
tp3217
s(I28
I31
tp3218
(F32.905243055555552
F63.258516388888886
tp3219
s(I40
I10
tp3220
(F125.53767777777777
F17.095926388888888
tp3221
s(I21
I40
tp3222
(F-4.8990924999999992
F38.681734444444444
tp3223
s(I4
I16
tp3224
(F-109.35899416666666
F29.3669875
tp3225
s(I26
I37
tp3226
(F13.570434444444444
F48.47455305555556
tp3227
s(I7
I5
tp3228
g9
s(I16
I19
tp3229
(F-118.30075583333333
F70.846070833333329
tp3230
s(I22
I25
tp3231
(F-11.3099325
F83.493752777777772
tp3232
s(I44
I14
tp3233
g9
s(I12
I39
tp3234
(F-32.471192222222221
F29.631065555555555
tp3235
s(I34
I20
tp3236
(F102.26477361111111
F58.463005000000003
tp3237
s(I10
I29
tp3238
(F-62.525568333333332
F51.231305277777778
tp3239
s(I13
I0
tp3240
g9
s(I0
I27
tp3241
g9
s(I38
I8
tp3242
(F133.0908475
F19.381013055555556
tp3243
s(I25
I5
tp3244
(F171.86989777777779
F38.216923333333334
tp3245
s(I28
I22
tp3246
(F95.194428888888893
F75.791425277777776
tp3247
s(I14
I33
tp3248
(F-38.990994166666667
F53.100633611111114
tp3249
s(I4
I31
tp3250
(F-65.323136944444443
F25.196026111111113
tp3251
s(I26
I44
tp3252
(F9.2461127777777765
F14.503060833333333
tp3253
s(I7
I2
tp3254
g9
s(I16
I10
tp3255
(F-152.52556833333335
F51.231305277777778
tp3256
s(I19
I7
tp3257
(F-167.27564444444445
F45.070735555555558
tp3258
s(I41
I22
tp3259
(F91.548157777777774
F34.661894444444442
tp3260
s(I22
I16
tp3261
(F-175.60129472222221
F73.157469722222231
tp3262
s(I44
I5
tp3263
g9
s(I37
I34
tp3264
(F51.581944722222225
F34.661894444444442
tp3265
s(I10
I4
tp3266
(F-145.95406277777778
F7.107310833333333
tp3267
s(I35
I20
tp3268
(F101.3099325
F55.489467500000003
tp3269
s(I0
I18
tp3270
g9
s(I38
I3
tp3271
g9
s(I25
I14
tp3272
(F163.6104597222222
F66.810168611111109
tp3273
s(I14
I40
tp3274
(F-25.906508055555555
F30.154947777777778
tp3275
s(I4
I6
tp3276
g9
s(I29
I10
tp3277
(F152.52556833333335
F51.231305277777778
tp3278
s(I16
I1
tp3279
(F-163.17858999999999
F3.3706188888888891
tp3280
s(I19
I12
tp3281
(F-161.56505111111113
F60.533811388888886
tp3282
s(I2
I44
tp3283
g9
s(I41
I31
tp3284
(F65.323136944444443
F25.196026111111113
tp3285
s(I22
I43
tp3286
(F-1.397181111111111
F24.302951944444445
tp3287
s(I5
I33
tp3288
(F-59.036243333333331
F24.900959722222222
tp3289
s(I9
I38
tp3290
(F-41.054813888888887
F23.999799722222225
tp3291
s(I34
I38
tp3292
(F36.573031111111113
F30.930736388888889
tp3293
s(I17
I38
tp3294
(F-19.536655000000003
F43.032004722222219
tp3295
s(I37
I43
tp3296
g9
s(I42
I38
tp3297
g9
s(I23
I8
tp3298
(F178.02506611111113
F49.847258888888888
tp3299
s(I10
I15
tp3300
(F-120.96375666666667
F49.617780555555555
tp3301
s(I35
I29
tp3302
(F62.525568333333332
F51.231305277777778
tp3303
s(I25
I23
tp3304
(F78.690067499999998
F83.493752777777772
tp3305
s(I1
I14
tp3306
g9
s(I39
I25
tp3307
(F81.384351944444447
F42.123305555555554
tp3308
s(I4
I13
tp3309
(F-117.18111111111112
F22.437735
tp3310
s(I29
I3
tp3311
(F161.56505111111113
F23.999799722222225
tp3312
s(I19
I21
tp3313
(F-113.19859055555555
F80.256400833333331
tp3314
s(I2
I39
tp3315
g9
s(I41
I0
tp3316
g9
s(I22
I34
tp3317
(F-2.4895530555555556
F59.229938055555557
tp3318
s(I5
I42
tp3319
g9
s(I30
I34
tp3320
(F33.111341944444447
F52.395937222222223
tp3321
s(I34
I33
tp3322
(F47.602562222222225
F46.2028575
tp3323
s(I17
I31
tp3324
(F-32.905243055555552
F63.258516388888886
tp3325
s(I42
I33
tp3326
(F61.699244166666666
F10.159174722222222
tp3327
s(I23
I1
tp3328
(F178.66778027777778
F17.095926388888888
tp3329
s(I13
I43
tp3330
g9
s(I35
I2
tp3331
g9
s(I25
I24
tp3332
(F59.036243333333331
F82.5548675
tp3333
s(I11
I29
tp3334
(F-60.524111111111111
F54.0482175
tp3335
s(I1
I7
tp3336
g9
s(I39
I22
tp3337
(F91.735704722222223
F42.805051666666664
tp3338
s(I29
I28
tp3339
(F49.763641666666665
F67.763482777777782
tp3340
s(I19
I26
tp3341
(F-45
F77.291626111111114
tp3342
s(I41
I9
tp3343
g9
s(I22
I37
tp3344
(F-1.974933888888889
F49.847258888888888
tp3345
s(I5
I19
tp3346
(F-101.3099325
F37.516235000000002
tp3347
s(I27
I42
tp3348
(F12.994616666666666
F27.196502777777777
tp3349
s(I30
I37
tp3350
(F27.349875833333332
F43.485554444444446
tp3351
s(I17
I16
tp3352
(F-139.76364166666667
F67.763482777777782
tp3353
s(I42
I40
tp3354
g9
s(I23
I30
tp3355
(F3.8140747222222222
F70.483807222222225
tp3356
s(I32
I14
tp3357
(F131.82016999999999
F55.489467500000003
tp3358
s(I13
I36
tp3359
(F-35.134193055555556
F42.805051666666664
tp3360
s(I35
I11
tp3361
(F132.61405583333334
F40.983220555555555
tp3362
s(I11
I18
tp3363
(F-111.37062222222221
F56.711955555555555
tp3364
s(I1
I24
tp3365
(F-86.009086944444448
F16.688866944444445
tp3366
s(I39
I15
tp3367
(F114.44395472222223
F36.337910000000001
tp3368
s(I26
I0
tp3369
g9
s(I29
I21
tp3370
(F102.99461666666667
F72.753608611111105
tp3371
s(I15
I38
tp3372
(F-25.820991944444444
F40.066606666666665
tp3373
s(I19
I35
tp3374
(F-15.642246388888889
F54.76562638888889
tp3375
s(I5
I28
tp3376
(F-72.55281166666667
F35.384343333333334
tp3377
s(I27
I35
tp3378
(F19.798876388888889
F53.810404166666665
tp3379
s(I30
I44
tp3380
g9
s(I17
I9
tp3381
(F-157.83365416666669
F49.617780555555555
tp3382
s(I20
I2
tp3383
(F-173.0470425
F23.38462361111111
tp3384
s(I42
I19
tp3385
(F100.17551083333333
F28.295314166666667
tp3386
s(I23
I23
tp3387
(F45
F88.199070833333337
tp3388
s(I32
I5
tp3389
(F151.5043613888889
F27.749530277777779
tp3390
s(I18
I40
tp3391
(F-14.420773055555555
F36.574717500000006
tp3392
s(I11
I11
tp3393
(F-135
F43.712179722222224
tp3394
s(I14
I4
tp3395
(F-155.32313694444443
F25.196026111111113
tp3396
s(I36
I17
tp3397
(F112.16634583333334
F49.617780555555555
tp3398
s(I1
I17
tp3399
(F-104.34933194444444
F9.4858724999999993
tp3400
s(I39
I4
tp3401
g9
s(I26
I11
tp3402
(F163.07248694444445
F57.706364166666667
tp3403
s(I19
I40
tp3404
(F-11.3099325
F37.516235000000002
tp3405
s(I5
I5
tp3406
g9
s(I30
I23
tp3407
(F86.185925277777784
F70.483807222222225
tp3408
s(I17
I2
tp3409
(F-164.98163944444445
F19.381013055555556
tp3410
s(I20
I9
tp3411
(F-169.50852305555554
F52.395937222222223
tp3412
s(I42
I26
tp3413
(F79.824489166666666
F28.295314166666667
tp3414
s(I23
I44
tp3415
(F1.3322197222222223
F17.095926388888888
tp3416
s(I6
I44
tp3417
g9
s(I10
I35
tp3418
(F-45
F38.216923333333334
tp3419
s(I32
I28
tp3420
(F59.931417222222223
F60.798813055555556
tp3421
s(I18
I35
tp3422
(F-19.798876388888889
F53.810404166666665
tp3423
s(I38
I38
tp3424
(F45
F13.034100277777778
tp3425
s(I43
I41
tp3426
g9
s(I8
I21
tp3427
(F-95.906141111111111
F49.617780555555555
tp3428
s(I11
I0
tp3429
g9
s(I14
I15
tp3430
(F-131.42366555555554
F59.747436666666665
tp3431
s(I36
I24
tp3432
(F83.659808333333345
F52.865197500000001
tp3433
s(I26
I18
tp3434
(F142.12501638888889
F75.322841388888889
tp3435
s(I2
I11
tp3436
g9
s(I24
I36
tp3437
(F6.3401916666666667
F52.865197500000001
tp3438
s(I5
I14
tp3439
(F-115.90650805555556
F30.154947777777778
tp3440
s(I30
I30
tp3441
(F45
F61.874494166666665
tp3442
s(I20
I16
tp3443
(F-158.96248888888888
F71.96970972222222
tp3444
s(I42
I5
tp3445
g9
s(I23
I37
tp3446
(F1.974933888888889
F49.847258888888888
tp3447
s(I6
I39
tp3448
g9
s(I10
I42
tp3449
g9
s(I32
I19
tp3450
(F110.22485944444445
F63.258516388888886
tp3451
s(I31
I37
tp3452
(F30.379126111111113
F41.667922222222217
tp3453
s(I18
I26
tp3454
(F-52.125016388888888
F75.322841388888889
tp3455
s(I8
I28
tp3456
(F-69.227745277777785
F46.429450833333334
tp3457
s(I14
I22
tp3458
(F-93.366460555555548
F67.763482777777782
tp3459
s(I36
I7
tp3460
(F138.94518611111113
F23.999799722222225
tp3461
s(I26
I29
tp3462
(F28.300755833333334
F70.846070833333329
tp3463
s(I12
I24
tp3464
(F-81.869897777777766
F61.874494166666665
tp3465
s(I2
I2
tp3466
g9
s(I24
I43
tp3467
(F4.1849161111111117
F23.999799722222225
tp3468
s(I30
I1
tp3469
g9
s(I20
I31
tp3470
(F-16.389540277777776
F66.810168611111109
tp3471
s(I3
I33
tp3472
(F-61.699244166666666
F10.159174722222222
tp3473
s(I42
I12
tp3474
(F118.30075583333333
F10.159174722222222
tp3475
s(I23
I34
tp3476
(F2.4895530555555556
F59.229938055555557
tp3477
s(I6
I30
tp3478
(F-65.55604527777777
F36.337910000000001
tp3479
s(I32
I42
tp3480
(F25.974393888888887
F15.410876388888889
tp3481
s(I31
I34
tp3482
(F36.469234444444446
F50.537645555555557
tp3483
s(I35
I39
tp3484
(F37.146686666666668
F23.07234861111111
tp3485
s(I18
I21
tp3486
(F-108.4349488888889
F77.829676666666657
tp3487
s(I43
I39
tp3488
g9
s(I8
I3
tp3489
g9
s(I33
I13
tp3490
(F132.13759472222222
F50.999693888888892
tp3491
s(I14
I25
tp3492
(F-73.610459722222217
F66.810168611111109
tp3493
s(I36
I14
tp3494
(F122.1957338888889
F44.844381111111112
tp3495
s(I12
I23
tp3496
(F-87.273688888888884
F62.147598333333335
tp3497
s(I2
I29
tp3498
(F-72.407575555555567
F17.095926388888888
tp3499
s(I27
I15
tp3500
(F149.03624333333335
F67.124492777777775
tp3501
s(I30
I8
tp3502
(F152.65012416666667
F43.485554444444446
tp3503
s(I0
I43
tp3504
g9
s(I20
I38
tp3505
(F-9.1623469444444456
F45.749882222222226
tp3506
s(I3
I38
tp3507
g9
s(I6
I17
tp3508
(F-108.4349488888889
F39.375835277777782
tp3509
s(I28
I38
tp3510
(F19.536655000000003
F43.032004722222219
tp3511
s(I32
I33
tp3512
(F42.137594722222225
F50.999693888888892
tp3513
s(I31
I43
tp3514
(F22.520565555555553
F9.4858724999999993
tp3515
s(I35
I44
tp3516
g9
s(I18
I12
tp3517
(F-156.80140944444446
F59.488040277777777
tp3518
s(I40
I33
tp3519
(F59.036243333333331
F24.900959722222222
tp3520
s(I21
I1
tp3521
(F-176.00908694444445
F16.688866944444445
tp3522
s(I43
I28
tp3523
(F74.98163944444444
F19.381013055555556
tp3524
s(I8
I10
tp3525
(F-130.76360527777777
F31.695445555555555
tp3526
s(I33
I6
tp3527
(F147.52880777777779
F29.631065555555555
tp3528
s(I39
I40
tp3529
g9
s(I12
I14
tp3530
(F-128.99099416666667
F53.100633611111114
tp3531
s(I15
I3
tp3532
(F-158.96248888888888
F21.788674166666667
tp3533
s(I37
I18
tp3534
(F107.24145944444444
F47.564048055555553
tp3535
s(I2
I20
tp3536
(F-96.952957499999997
F23.38462361111111
tp3537
s(I27
I4
tp3538
(F166.32869277777777
F32.199586388888882
tp3539
s(I0
I34
tp3540
g9
s(I6
I8
tp3541
(F-131.30861388888891
F12.509144444444445
tp3542
s(I31
I16
tp3543
(F127.40535666666668
F61.603118888888893
tp3544
s(I18
I7
tp3545
(F-163.81079361111111
F44.165202499999999
tp3546
s(I40
I40
tp3547
g9
s(I21
I10
tp3548
(F-173.15722666666667
F55.975921388888892
tp3549
s(I43
I21
tp3550
(F94.184916111111121
F23.999799722222225
tp3551
s(I7
I43
tp3552
g9
s(I11
I44
tp3553
g9
s(I33
I31
tp3554
(F51.009005833333333
F53.100633611111114
tp3555
s(I39
I33
tp3556
(F57.528807777777779
F29.631065555555555
tp3557
s(I44
I44
tp3558
g9
s(I9
I22
tp3559
(F-92.121096388888887
F53.100633611111114
tp3560
s(I12
I5
tp3561
(F-149.03624333333335
F24.900959722222222
tp3562
s(I15
I8
tp3563
(F-152.65012416666667
F43.485554444444446
tp3564
s(I37
I27
tp3565
(F72.758540555555555
F47.564048055555553
tp3566
s(I24
I0
tp3567
g9
s(I27
I29
tp3568
(F34.69515361111111
F69.429222500000009
tp3569
s(I3
I20
tp3570
(F-97.305759444444448
F29.101423055555557
tp3571
s(I25
I39
tp3572
(F8.615648055555555
F42.123305555555554
tp3573
s(I6
I3
tp3574
g9
s(I31
I25
tp3575
(F73.610459722222217
F66.810168611111109
tp3576
s(I21
I19
tp3577
(F-156.80140944444446
F80.256400833333331
tp3578
s(I43
I10
tp3579
g9
s(I7
I32
tp3580
(F-58.495733333333334
F36.10049027777778
tp3581
s(I11
I37
tp3582
(F-38.418055277777775
F34.661894444444442
tp3583
s(I33
I16
tp3584
(F121.75948
F56.711955555555555
tp3585
s(I16
I40
tp3586
(F-20.376435277777777
F33.932501666666667
tp3587
s(I44
I43
tp3588
g9
s(I9
I31
tp3589
(F-57.804266111111112
F44.844381111111112
tp3590
s(I15
I17
tp3591
(F-126.25383777777778
F65.584094166666659
tp3592
s(I37
I4
tp3593
g9
s(I24
I7
tp3594
(F174.47245972222223
F46.2028575
tp3595
s(I27
I18
tp3596
(F135
F73.570059722222211
tp3597
s(I13
I27
tp3598
(F-64.653824166666666
F62.147598333333335
tp3599
s(I3
I29
tp3600
(F-71.565051111111103
F23.999799722222225
tp3601
s(I25
I40
tp3602
(F8.1301022222222219
F38.216923333333334
tp3603
s.